

Microchip MPLAB XC8 Assembler V2.31 build 20201012212115 
                                                                                               Thu Jun 03 02:22:37 2021

Microchip MPLAB XC8 C Compiler v2.31 (Free license) build 20201012212115 Og1 
     1                           	processor	16F887
     2                           	pagewidth 120
     3                           	opt	flic
     4                           	psect	idataBANK0,global,class=CODE,delta=2,noexec
     5                           	psect	cinit,global,class=CODE,merge=1,delta=2
     6                           	psect	bssCOMMON,global,class=COMMON,space=1,delta=1,noexec
     7                           	psect	bssBANK0,global,class=BANK0,space=1,delta=1,noexec
     8                           	psect	dataBANK0,global,class=BANK0,space=1,delta=1,noexec
     9                           	psect	inittext,global,class=CODE,delta=2
    10                           	psect	cstackCOMMON,global,class=COMMON,space=1,delta=1,noexec
    11                           	psect	cstackBANK0,global,class=BANK0,space=1,delta=1,noexec
    12                           	psect	maintext,global,class=CODE,split=1,delta=2
    13                           	psect	text1,local,class=CODE,merge=1,delta=2
    14                           	psect	text2,local,class=CODE,merge=1,delta=2
    15                           	psect	text3,local,class=CODE,merge=1,delta=2
    16                           	psect	text4,local,class=CODE,merge=1,delta=2
    17                           	psect	intentry,global,class=CODE,delta=2
    18                           	psect	config,global,abs,ovrld,class=CONFIG,space=4,delta=2,noexec
    19                           	dabs	1,0x7E,2
    20  0000                     
    21                           ; Version 2.20
    22                           ; Generated 12/02/2020 GMT
    23                           ; 
    24                           ; Copyright © 2020, Microchip Technology Inc. and its subsidiaries ("Microchip")
    25                           ; All rights reserved.
    26                           ; 
    27                           ; This software is developed by Microchip Technology Inc. and its subsidiaries ("Microch
      +                          ip").
    28                           ; 
    29                           ; Redistribution and use in source and binary forms, with or without modification, are
    30                           ; permitted provided that the following conditions are met:
    31                           ; 
    32                           ;     1. Redistributions of source code must retain the above copyright notice, this lis
      +                          t of
    33                           ;        conditions and the following disclaimer.
    34                           ; 
    35                           ;     2. Redistributions in binary form must reproduce the above copyright notice, this 
      +                          list
    36                           ;        of conditions and the following disclaimer in the documentation and/or other
    37                           ;        materials provided with the distribution.
    38                           ; 
    39                           ;     3. Microchip's name may not be used to endorse or promote products derived from th
      +                          is
    40                           ;        software without specific prior written permission.
    41                           ; 
    42                           ; THIS SOFTWARE IS PROVIDED BY MICROCHIP "AS IS" AND ANY EXPRESS OR IMPLIED WARRANTIES,
    43                           ; INCLUDING, BUT NOT LIMITED TO, THE IMPLIED WARRANTIES OF MERCHANTABILITY AND FITNESS F
      +                          OR
    44                           ; PURPOSE ARE DISCLAIMED.  IN NO EVENT SHALL MICROCHIP BE LIABLE FOR ANY DIRECT, INDIREC
      +                          T,
    45                           ; INCIDENTAL, SPECIAL, EXEMPLARY, OR CONSEQUENTIAL DAMAGES (INCLUDING BUT NOT LIMITED TO
    46                           ; PROCUREMENT OF SUBSTITUTE GOODS OR SERVICES; LOSS OF USE, DATA OR PROFITS; OR BUSINESS
    47                           ; INTERRUPTION) HOWSOEVER CAUSED AND ON ANY THEORY OF LIABILITY, WHETHER IN CONTRACT, ST
      +                          RICT
    48                           ; LIABILITY, OR TORT (INCLUDING NEGLIGENCE OR OTHERWISE) ARISING IN ANY WAY OUT OF THE U
      +                          SE OF
    49                           ; THIS SOFTWARE, EVEN IF ADVISED OF THE POSSIBILITY OF SUCH DAMAGE.
    50                           ; 
    51                           ; 
    52                           ; Code-generator required, PIC16F887 Definitions
    53                           ; 
    54                           ; SFR Addresses
    55  0000                     	;# 
    56  0001                     	;# 
    57  0002                     	;# 
    58  0003                     	;# 
    59  0004                     	;# 
    60  0005                     	;# 
    61  0006                     	;# 
    62  0007                     	;# 
    63  0008                     	;# 
    64  0009                     	;# 
    65  000A                     	;# 
    66  000B                     	;# 
    67  000C                     	;# 
    68  000D                     	;# 
    69  000E                     	;# 
    70  000E                     	;# 
    71  000F                     	;# 
    72  0010                     	;# 
    73  0011                     	;# 
    74  0012                     	;# 
    75  0013                     	;# 
    76  0014                     	;# 
    77  0015                     	;# 
    78  0015                     	;# 
    79  0016                     	;# 
    80  0017                     	;# 
    81  0018                     	;# 
    82  0019                     	;# 
    83  001A                     	;# 
    84  001B                     	;# 
    85  001B                     	;# 
    86  001C                     	;# 
    87  001D                     	;# 
    88  001E                     	;# 
    89  001F                     	;# 
    90  0081                     	;# 
    91  0085                     	;# 
    92  0086                     	;# 
    93  0087                     	;# 
    94  0088                     	;# 
    95  0089                     	;# 
    96  008C                     	;# 
    97  008D                     	;# 
    98  008E                     	;# 
    99  008F                     	;# 
   100  0090                     	;# 
   101  0091                     	;# 
   102  0092                     	;# 
   103  0093                     	;# 
   104  0093                     	;# 
   105  0093                     	;# 
   106  0094                     	;# 
   107  0095                     	;# 
   108  0096                     	;# 
   109  0097                     	;# 
   110  0098                     	;# 
   111  0099                     	;# 
   112  009A                     	;# 
   113  009B                     	;# 
   114  009C                     	;# 
   115  009D                     	;# 
   116  009E                     	;# 
   117  009F                     	;# 
   118  0105                     	;# 
   119  0107                     	;# 
   120  0108                     	;# 
   121  0109                     	;# 
   122  010C                     	;# 
   123  010C                     	;# 
   124  010D                     	;# 
   125  010E                     	;# 
   126  010F                     	;# 
   127  0185                     	;# 
   128  0187                     	;# 
   129  0188                     	;# 
   130  0189                     	;# 
   131  018C                     	;# 
   132  018D                     	;# 
   133  0000                     	;# 
   134  0001                     	;# 
   135  0002                     	;# 
   136  0003                     	;# 
   137  0004                     	;# 
   138  0005                     	;# 
   139  0006                     	;# 
   140  0007                     	;# 
   141  0008                     	;# 
   142  0009                     	;# 
   143  000A                     	;# 
   144  000B                     	;# 
   145  000C                     	;# 
   146  000D                     	;# 
   147  000E                     	;# 
   148  000E                     	;# 
   149  000F                     	;# 
   150  0010                     	;# 
   151  0011                     	;# 
   152  0012                     	;# 
   153  0013                     	;# 
   154  0014                     	;# 
   155  0015                     	;# 
   156  0015                     	;# 
   157  0016                     	;# 
   158  0017                     	;# 
   159  0018                     	;# 
   160  0019                     	;# 
   161  001A                     	;# 
   162  001B                     	;# 
   163  001B                     	;# 
   164  001C                     	;# 
   165  001D                     	;# 
   166  001E                     	;# 
   167  001F                     	;# 
   168  0081                     	;# 
   169  0085                     	;# 
   170  0086                     	;# 
   171  0087                     	;# 
   172  0088                     	;# 
   173  0089                     	;# 
   174  008C                     	;# 
   175  008D                     	;# 
   176  008E                     	;# 
   177  008F                     	;# 
   178  0090                     	;# 
   179  0091                     	;# 
   180  0092                     	;# 
   181  0093                     	;# 
   182  0093                     	;# 
   183  0093                     	;# 
   184  0094                     	;# 
   185  0095                     	;# 
   186  0096                     	;# 
   187  0097                     	;# 
   188  0098                     	;# 
   189  0099                     	;# 
   190  009A                     	;# 
   191  009B                     	;# 
   192  009C                     	;# 
   193  009D                     	;# 
   194  009E                     	;# 
   195  009F                     	;# 
   196  0105                     	;# 
   197  0107                     	;# 
   198  0108                     	;# 
   199  0109                     	;# 
   200  010C                     	;# 
   201  010C                     	;# 
   202  010D                     	;# 
   203  010E                     	;# 
   204  010F                     	;# 
   205  0185                     	;# 
   206  0187                     	;# 
   207  0188                     	;# 
   208  0189                     	;# 
   209  018C                     	;# 
   210  018D                     	;# 
   211                           
   212                           	psect	idataBANK0
   213  0301                     __pidataBANK0:
   214                           
   215                           ;initializer for _potenciometro1
   216  0301  3404               	retlw	4
   217  0302  3405               	retlw	5
   218  0303  3406               	retlw	6
   219  0304  3407               	retlw	7
   220  0305  3408               	retlw	8
   221                           
   222                           ;initializer for _estado3_servos
   223  0306  3432               	retlw	50
   224                           
   225                           ;initializer for _estado2_servos
   226  0307  3431               	retlw	49
   227                           
   228                           ;initializer for _estado1_servos
   229  0308  3430               	retlw	48
   230  000D                     _PIR2bits	set	13
   231  0018                     _RCSTAbits	set	24
   232  0012                     _T2CONbits	set	18
   233  001D                     _CCP2CONbits	set	29
   234  0017                     _CCP1CONbits	set	23
   235  0009                     _PORTE	set	9
   236  0008                     _PORTD	set	8
   237  0006                     _PORTB	set	6
   238  0005                     _PORTA	set	5
   239  0019                     _TXREG	set	25
   240  001B                     _CCPR2L	set	27
   241  0015                     _CCPR1L	set	21
   242  001E                     _ADRESH	set	30
   243  001F                     _ADCON0bits	set	31
   244  001A                     _RCREG	set	26
   245  000C                     _PIR1bits	set	12
   246  0001                     _TMR0	set	1
   247  0008                     _PORTDbits	set	8
   248  000B                     _INTCONbits	set	11
   249  0031                     _RB1	set	49
   250  0030                     _RB0	set	48
   251  008C                     _PIE1bits	set	140
   252  009A                     _SPBRGH	set	154
   253  0099                     _SPBRG	set	153
   254  0098                     _TXSTAbits	set	152
   255  0087                     _TRISCbits	set	135
   256  009F                     _ADCON1bits	set	159
   257  0081                     _OPTION_REGbits	set	129
   258  008F                     _OSCCONbits	set	143
   259  0089                     _TRISE	set	137
   260  0088                     _TRISD	set	136
   261  0086                     _TRISB	set	134
   262  0085                     _TRISAbits	set	133
   263  010C                     _EEDAT	set	268
   264  010D                     _EEADR	set	269
   265  018D                     _EECON2	set	397
   266  018C                     _EECON1bits	set	396
   267  0187                     _BAUDCTLbits	set	391
   268  0188                     _ANSELbits	set	392
   269                           
   270                           	psect	cinit
   271  0013                     start_initialization:	
   272                           ; #config settings
   273                           
   274  0013                     __initialization:
   275                           
   276                           ; Initialize objects allocated to BANK0
   277  0013  1383               	bcf	3,7	;select IRP bank0
   278  0014  3028               	movlw	low (__pdataBANK0+8)
   279  0015  00FD               	movwf	btemp+-1
   280  0016  3003               	movlw	high __pidataBANK0
   281  0017  00FE               	movwf	btemp
   282  0018  3001               	movlw	low __pidataBANK0
   283  0019  00FF               	movwf	btemp+1
   284  001A  3020               	movlw	low __pdataBANK0
   285  001B  0084               	movwf	4
   286  001C  120A  118A  22E3  120A  118A  	fcall	init_ram0
   287                           
   288                           ; Clear objects allocated to BANK0
   289  0021  01AD               	clrf	__pbssBANK0& (0+127)
   290  0022  01AE               	clrf	(__pbssBANK0+1)& (0+127)
   291                           
   292                           ; Clear objects allocated to COMMON
   293  0023  01F0               	clrf	__pbssCOMMON& (0+127)
   294  0024  01F1               	clrf	(__pbssCOMMON+1)& (0+127)
   295  0025  01F2               	clrf	(__pbssCOMMON+2)& (0+127)
   296  0026  01F3               	clrf	(__pbssCOMMON+3)& (0+127)
   297  0027  01F4               	clrf	(__pbssCOMMON+4)& (0+127)
   298  0028  01F5               	clrf	(__pbssCOMMON+5)& (0+127)
   299  0029  01F6               	clrf	(__pbssCOMMON+6)& (0+127)
   300  002A                     end_of_initialization:	
   301                           ;End of C runtime variable initialization code
   302                           
   303  002A                     __end_of__initialization:
   304  002A  0183               	clrf	3
   305  002B  120A  118A  282E   	ljmp	_main	;jump to C main() function
   306                           
   307                           	psect	bssCOMMON
   308  0070                     __pbssCOMMON:
   309  0070                     _antirrebote2:
   310  0070                     	ds	2
   311  0072                     _antirrebote1:
   312  0072                     	ds	2
   313  0074                     _cuenta:
   314  0074                     	ds	2
   315  0076                     _dato_recibido:
   316  0076                     	ds	1
   317                           
   318                           	psect	bssBANK0
   319  002D                     __pbssBANK0:
   320  002D                     _botonPrevState:
   321  002D                     	ds	1
   322  002E                     _potValue:
   323  002E                     	ds	1
   324                           
   325                           	psect	dataBANK0
   326  0020                     __pdataBANK0:
   327  0020                     _potenciometro1:
   328  0020                     	ds	5
   329  0025                     _estado3_servos:
   330  0025                     	ds	1
   331  0026                     _estado2_servos:
   332  0026                     	ds	1
   333  0027                     _estado1_servos:
   334  0027                     	ds	1
   335                           
   336                           	psect	inittext
   337  02DF                     init_fetch0:	
   338                           ;	Called with low address in FSR and high address in W
   339                           
   340  02DF  087E               	movf	btemp,w
   341  02E0  008A               	movwf	10
   342  02E1  087F               	movf	btemp+1,w
   343  02E2  0082               	movwf	2
   344  02E3                     init_ram0:	
   345                           ;Called with:
   346                           ;	high address of idata address in btemp 
   347                           ;	low address of idata address in btemp+1 
   348                           ;	low address of data in FSR
   349                           ;	high address + 1 of data in btemp-1
   350                           
   351  02E3  120A  118A  22DF  120A  118A  	fcall	init_fetch0
   352  02E8  0080               	movwf	0
   353  02E9  0A84               	incf	4,f
   354  02EA  0804               	movf	4,w
   355  02EB  067D               	xorwf	btemp+-1,w
   356  02EC  1903               	btfsc	3,2
   357  02ED  3400               	retlw	0
   358  02EE  0AFF               	incf	btemp+1,f
   359  02EF  1903               	btfsc	3,2
   360  02F0  0AFE               	incf	btemp,f
   361  02F1  2AE3               	goto	init_ram0
   362                           
   363                           	psect	cstackCOMMON
   364  0077                     __pcstackCOMMON:
   365  0077                     ?_setup:
   366  0077                     ?_readFromEEPROM:	
   367                           ; 1 bytes @ 0x0
   368                           
   369  0077                     ?_isr:	
   370                           ; 1 bytes @ 0x0
   371                           
   372  0077                     ??_isr:	
   373                           ; 1 bytes @ 0x0
   374                           
   375  0077                     ?_main:	
   376                           ; 1 bytes @ 0x0
   377                           
   378                           
   379                           ; 1 bytes @ 0x0
   380  0077                     	ds	5
   381                           
   382                           	psect	cstackBANK0
   383  0028                     __pcstackBANK0:
   384  0028                     ??_setup:
   385  0028                     ?_writeToEEPROM:	
   386                           ; 1 bytes @ 0x0
   387                           
   388  0028                     ??_readFromEEPROM:	
   389                           ; 1 bytes @ 0x0
   390                           
   391  0028                     writeToEEPROM@address:	
   392                           ; 1 bytes @ 0x0
   393                           
   394                           
   395                           ; 1 bytes @ 0x0
   396  0028                     	ds	1
   397  0029                     ??_writeToEEPROM:
   398  0029                     writeToEEPROM@data:	
   399                           ; 1 bytes @ 0x1
   400                           
   401  0029                     readFromEEPROM@address:	
   402                           ; 1 bytes @ 0x1
   403                           
   404                           
   405                           ; 1 bytes @ 0x1
   406  0029                     	ds	1
   407  002A                     ??_main:
   408                           
   409                           ; 1 bytes @ 0x2
   410  002A                     	ds	3
   411                           
   412                           	psect	maintext
   413  002E                     __pmaintext:	
   414 ;;
   415 ;;Main: autosize = 0, tempsize = 3, incstack = 0, save=0
   416 ;;
   417 ;; *************** function _main *****************
   418 ;; Defined at:
   419 ;;		line 124 in file "proyectofinal_main.c"
   420 ;; Parameters:    Size  Location     Type
   421 ;;		None
   422 ;; Auto vars:     Size  Location     Type
   423 ;;		None
   424 ;; Return value:  Size  Location     Type
   425 ;;                  1    wreg      void 
   426 ;; Registers used:
   427 ;;		wreg, fsr0l, fsr0h, status,2, status,0, btemp+1, pclath, cstack
   428 ;; Tracked objects:
   429 ;;		On entry : B00/0
   430 ;;		On exit  : 0/0
   431 ;;		Unchanged: 0/0
   432 ;; Data sizes:     COMMON   BANK0   BANK1   BANK3   BANK2
   433 ;;      Params:         0       0       0       0       0
   434 ;;      Locals:         0       0       0       0       0
   435 ;;      Temps:          0       3       0       0       0
   436 ;;      Totals:         0       3       0       0       0
   437 ;;Total ram usage:        3 bytes
   438 ;; Hardware stack levels required when called:    2
   439 ;; This function calls:
   440 ;;		_readFromEEPROM
   441 ;;		_setup
   442 ;;		_writeToEEPROM
   443 ;; This function is called by:
   444 ;;		Startup code after reset
   445 ;; This function uses a non-reentrant model
   446 ;;
   447                           
   448                           
   449                           ;psect for function _main
   450  002E                     _main:
   451  002E                     l1581:	
   452                           ;incstack = 0
   453                           ; Regs used in _main: [wreg-fsr0h+status,2+status,0+btemp+1+pclath+cstack]
   454                           
   455                           
   456                           ;proyectofinal_main.c: 126:     setup();
   457  002E  120A  118A  2241  120A  118A  	fcall	_setup
   458  0033                     l1583:
   459                           
   460                           ;proyectofinal_main.c: 127:     _delay((unsigned long)((100)*(4000000/4000000.0)));
   461  0033  3020               	movlw	32
   462  0034  1283               	bcf	3,5	;RP0=0, select bank0
   463  0035  1303               	bcf	3,6	;RP1=0, select bank0
   464  0036  00AA               	movwf	??_main
   465  0037                     u377:
   466  0037  0BAA               	decfsz	??_main,f
   467  0038  2837               	goto	u377
   468  0039  0000               	nop
   469  003A                     l1585:
   470                           
   471                           ;proyectofinal_main.c: 128:     ADCON0bits.GO=1;
   472  003A  1283               	bcf	3,5	;RP0=0, select bank0
   473  003B  1303               	bcf	3,6	;RP1=0, select bank0
   474  003C  149F               	bsf	31,1	;volatile
   475  003D                     l1587:
   476                           
   477                           ;proyectofinal_main.c: 130:     {;proyectofinal_main.c: 132:         if (ADCON0bits.GO==
      +                          0)
   478  003D  1283               	bcf	3,5	;RP0=0, select bank0
   479  003E  1303               	bcf	3,6	;RP1=0, select bank0
   480  003F  189F               	btfsc	31,1	;volatile
   481  0040  2842               	goto	u281
   482  0041  2843               	goto	u280
   483  0042                     u281:
   484  0042  2894               	goto	l1611
   485  0043                     u280:
   486  0043  2874               	goto	l1605
   487  0044                     l1591:
   488                           
   489                           ;proyectofinal_main.c: 137:                     cuenta=ADRESH;
   490  0044  081E               	movf	30,w	;volatile
   491  0045  00AA               	movwf	??_main
   492  0046  01AB               	clrf	??_main+1
   493  0047  082A               	movf	??_main,w
   494  0048  00F4               	movwf	_cuenta
   495  0049  082B               	movf	??_main+1,w
   496  004A  00F5               	movwf	_cuenta+1
   497                           
   498                           ;proyectofinal_main.c: 138:                     _delay((unsigned long)((100)*(4000000/40
      +                          00000.0)));
   499  004B  3020               	movlw	32
   500  004C  1283               	bcf	3,5	;RP0=0, select bank0
   501  004D  1303               	bcf	3,6	;RP1=0, select bank0
   502  004E  00AA               	movwf	??_main
   503  004F                     u387:
   504  004F  0BAA               	decfsz	??_main,f
   505  0050  284F               	goto	u387
   506  0051  0000               	nop
   507  0052                     l1593:
   508                           
   509                           ;proyectofinal_main.c: 139:                     ADCON0bits.GO=1;
   510  0052  1283               	bcf	3,5	;RP0=0, select bank0
   511  0053  1303               	bcf	3,6	;RP1=0, select bank0
   512  0054  149F               	bsf	31,1	;volatile
   513                           
   514                           ;proyectofinal_main.c: 140:                     break;
   515  0055  288A               	goto	l1607
   516  0056                     l1595:
   517                           
   518                           ;proyectofinal_main.c: 143:                     CCPR1L =ADRESH;
   519  0056  081E               	movf	30,w	;volatile
   520  0057  0095               	movwf	21	;volatile
   521                           
   522                           ;proyectofinal_main.c: 144:                     _delay((unsigned long)((100)*(4000000/40
      +                          00000.0)));
   523  0058  3020               	movlw	32
   524  0059  1283               	bcf	3,5	;RP0=0, select bank0
   525  005A  1303               	bcf	3,6	;RP1=0, select bank0
   526  005B  00AA               	movwf	??_main
   527  005C                     u397:
   528  005C  0BAA               	decfsz	??_main,f
   529  005D  285C               	goto	u397
   530  005E  0000               	nop
   531  005F                     l1597:
   532                           
   533                           ;proyectofinal_main.c: 145:                     ADCON0bits.CHS=2;
   534  005F  1283               	bcf	3,5	;RP0=0, select bank0
   535  0060  1303               	bcf	3,6	;RP1=0, select bank0
   536  0061  081F               	movf	31,w	;volatile
   537  0062  39C3               	andlw	-61
   538  0063  3808               	iorlw	8
   539  0064  009F               	movwf	31	;volatile
   540                           
   541                           ;proyectofinal_main.c: 146:                     break;
   542  0065  288A               	goto	l1607
   543  0066                     l1599:
   544                           
   545                           ;proyectofinal_main.c: 149:                     CCPR2L =ADRESH;
   546  0066  081E               	movf	30,w	;volatile
   547  0067  009B               	movwf	27	;volatile
   548                           
   549                           ;proyectofinal_main.c: 150:                     _delay((unsigned long)((100)*(4000000/40
      +                          00000.0)));
   550  0068  3020               	movlw	32
   551  0069  1283               	bcf	3,5	;RP0=0, select bank0
   552  006A  1303               	bcf	3,6	;RP1=0, select bank0
   553  006B  00AA               	movwf	??_main
   554  006C                     u407:
   555  006C  0BAA               	decfsz	??_main,f
   556  006D  286C               	goto	u407
   557  006E  0000               	nop
   558  006F                     l1601:
   559                           
   560                           ;proyectofinal_main.c: 151:                     ADCON0bits.CHS=0;
   561  006F  30C3               	movlw	-61
   562  0070  1283               	bcf	3,5	;RP0=0, select bank0
   563  0071  1303               	bcf	3,6	;RP1=0, select bank0
   564  0072  059F               	andwf	31,f	;volatile
   565                           
   566                           ;proyectofinal_main.c: 152:                     break;
   567  0073  288A               	goto	l1607
   568  0074                     l1605:
   569  0074  0C1F               	rrf	31,w	;volatile
   570  0075  00AA               	movwf	??_main
   571  0076  0C2A               	rrf	??_main,w
   572  0077  390F               	andlw	15
   573  0078  00AB               	movwf	??_main+1
   574  0079  01AC               	clrf	??_main+2
   575                           
   576                           ; Switch on 2 bytes has been partitioned into a top level switch of size 1, and 1 sub-sw
      +                          itches
   577                           ; Switch size 1, requested type "simple"
   578                           ; Number of cases is 1, Range of values is 0 to 0
   579                           ; switch strategies available:
   580                           ; Name         Instructions Cycles
   581                           ; simple_byte            4     3 (average)
   582                           ; direct_byte           11     8 (fixed)
   583                           ; jumptable            260     6 (fixed)
   584                           ;	Chosen strategy is simple_byte
   585  007A  082C               	movf	??_main+2,w
   586  007B  3A00               	xorlw	0	; case 0
   587  007C  1903               	skipnz
   588  007D  287F               	goto	l1797
   589  007E  288A               	goto	l1607
   590  007F                     l1797:
   591                           
   592                           ; Switch size 1, requested type "simple"
   593                           ; Number of cases is 3, Range of values is 0 to 2
   594                           ; switch strategies available:
   595                           ; Name         Instructions Cycles
   596                           ; simple_byte           10     6 (average)
   597                           ; direct_byte           17     8 (fixed)
   598                           ; jumptable            260     6 (fixed)
   599                           ;	Chosen strategy is simple_byte
   600  007F  082B               	movf	??_main+1,w
   601  0080  3A00               	xorlw	0	; case 0
   602  0081  1903               	skipnz
   603  0082  2844               	goto	l1591
   604  0083  3A01               	xorlw	1	; case 1
   605  0084  1903               	skipnz
   606  0085  2856               	goto	l1595
   607  0086  3A03               	xorlw	3	; case 2
   608  0087  1903               	skipnz
   609  0088  2866               	goto	l1599
   610  0089  288A               	goto	l1607
   611  008A                     l1607:
   612                           
   613                           ;proyectofinal_main.c: 154:             _delay((unsigned long)((100)*(4000000/4000000.0)
      +                          ));
   614  008A  3020               	movlw	32
   615  008B  1283               	bcf	3,5	;RP0=0, select bank0
   616  008C  1303               	bcf	3,6	;RP1=0, select bank0
   617  008D  00AA               	movwf	??_main
   618  008E                     u417:
   619  008E  0BAA               	decfsz	??_main,f
   620  008F  288E               	goto	u417
   621  0090  0000               	nop
   622  0091                     l1609:
   623                           
   624                           ;proyectofinal_main.c: 155:             ADCON0bits.GO=1;
   625  0091  1283               	bcf	3,5	;RP0=0, select bank0
   626  0092  1303               	bcf	3,6	;RP1=0, select bank0
   627  0093  149F               	bsf	31,1	;volatile
   628  0094                     l1611:
   629                           
   630                           ;proyectofinal_main.c: 158:         if (RB0 == 1)
   631  0094  1C06               	btfss	6,0	;volatile
   632  0095  2897               	goto	u291
   633  0096  2898               	goto	u290
   634  0097                     u291:
   635  0097  289C               	goto	l1615
   636  0098                     u290:
   637  0098                     l1613:
   638                           
   639                           ;proyectofinal_main.c: 159:             antirrebote1 = 1;
   640  0098  3001               	movlw	1
   641  0099  00F2               	movwf	_antirrebote1
   642  009A  3000               	movlw	0
   643  009B  00F3               	movwf	_antirrebote1+1
   644  009C                     l1615:
   645                           
   646                           ;proyectofinal_main.c: 161:         if (RB0 == 0 && antirrebote1 == 1)
   647  009C  1806               	btfsc	6,0	;volatile
   648  009D  289F               	goto	u301
   649  009E  28A0               	goto	u300
   650  009F                     u301:
   651  009F  28FB               	goto	l1645
   652  00A0                     u300:
   653  00A0                     l1617:
   654  00A0  0372               	decf	_antirrebote1,w
   655  00A1  0473               	iorwf	_antirrebote1+1,w
   656  00A2  1D03               	btfss	3,2
   657  00A3  28A5               	goto	u311
   658  00A4  28A6               	goto	u310
   659  00A5                     u311:
   660  00A5  28FB               	goto	l1645
   661  00A6                     u310:
   662  00A6  28D9               	goto	l1639
   663  00A7                     l1621:
   664                           
   665                           ;proyectofinal_main.c: 166:                     writeToEEPROM(cuenta, potenciometro1[0])
      +                          ;
   666  00A7  0820               	movf	_potenciometro1,w
   667  00A8  00AA               	movwf	??_main
   668  00A9  082A               	movf	??_main,w
   669  00AA  00A8               	movwf	writeToEEPROM@address
   670  00AB  0874               	movf	_cuenta,w
   671  00AC  120A  118A  22BC  120A  118A  	fcall	_writeToEEPROM
   672  00B1                     l1623:
   673                           
   674                           ;proyectofinal_main.c: 167:                     antirrebote1++;
   675  00B1  3001               	movlw	1
   676  00B2  07F2               	addwf	_antirrebote1,f
   677  00B3  1803               	skipnc
   678  00B4  0AF3               	incf	_antirrebote1+1,f
   679  00B5  3000               	movlw	0
   680  00B6  07F3               	addwf	_antirrebote1+1,f
   681                           
   682                           ;proyectofinal_main.c: 168:                     break;
   683  00B7  28EC               	goto	l1641
   684  00B8                     l1625:
   685                           
   686                           ;proyectofinal_main.c: 171:                     writeToEEPROM(cuenta, potenciometro1[1])
      +                          ;
   687  00B8  0821               	movf	_potenciometro1+1,w
   688  00B9  00AA               	movwf	??_main
   689  00BA  082A               	movf	??_main,w
   690  00BB  00A8               	movwf	writeToEEPROM@address
   691  00BC  0874               	movf	_cuenta,w
   692  00BD  120A  118A  22BC  120A  118A  	fcall	_writeToEEPROM
   693  00C2  28B1               	goto	l1623
   694  00C3                     l1629:
   695                           
   696                           ;proyectofinal_main.c: 176:                     writeToEEPROM(cuenta, potenciometro1[2])
      +                          ;
   697  00C3  0822               	movf	_potenciometro1+2,w
   698  00C4  00AA               	movwf	??_main
   699  00C5  082A               	movf	??_main,w
   700  00C6  00A8               	movwf	writeToEEPROM@address
   701  00C7  0874               	movf	_cuenta,w
   702  00C8  120A  118A  22BC  120A  118A  	fcall	_writeToEEPROM
   703  00CD  28B1               	goto	l1623
   704  00CE                     l1633:
   705                           
   706                           ;proyectofinal_main.c: 181:                     writeToEEPROM(cuenta, potenciometro1[3])
      +                          ;
   707  00CE  0823               	movf	_potenciometro1+3,w
   708  00CF  00AA               	movwf	??_main
   709  00D0  082A               	movf	??_main,w
   710  00D1  00A8               	movwf	writeToEEPROM@address
   711  00D2  0874               	movf	_cuenta,w
   712  00D3  120A  118A  22BC  120A  118A  	fcall	_writeToEEPROM
   713  00D8  28B1               	goto	l1623
   714  00D9                     l1639:
   715                           
   716                           ; Switch on 2 bytes has been partitioned into a top level switch of size 1, and 1 sub-sw
      +                          itches
   717                           ; Switch size 1, requested type "simple"
   718                           ; Number of cases is 1, Range of values is 0 to 0
   719                           ; switch strategies available:
   720                           ; Name         Instructions Cycles
   721                           ; simple_byte            4     3 (average)
   722                           ; direct_byte           11     8 (fixed)
   723                           ; jumptable            260     6 (fixed)
   724                           ;	Chosen strategy is simple_byte
   725  00D9  0873               	movf	_antirrebote1+1,w
   726  00DA  3A00               	xorlw	0	; case 0
   727  00DB  1903               	skipnz
   728  00DC  28DE               	goto	l1799
   729  00DD  28EC               	goto	l1641
   730  00DE                     l1799:
   731                           
   732                           ; Switch size 1, requested type "simple"
   733                           ; Number of cases is 4, Range of values is 1 to 4
   734                           ; switch strategies available:
   735                           ; Name         Instructions Cycles
   736                           ; simple_byte           13     7 (average)
   737                           ; direct_byte           23    11 (fixed)
   738                           ; jumptable            263     9 (fixed)
   739                           ;	Chosen strategy is simple_byte
   740  00DE  0872               	movf	_antirrebote1,w
   741  00DF  3A01               	xorlw	1	; case 1
   742  00E0  1903               	skipnz
   743  00E1  28A7               	goto	l1621
   744  00E2  3A03               	xorlw	3	; case 2
   745  00E3  1903               	skipnz
   746  00E4  28B8               	goto	l1625
   747  00E5  3A01               	xorlw	1	; case 3
   748  00E6  1903               	skipnz
   749  00E7  28C3               	goto	l1629
   750  00E8  3A07               	xorlw	7	; case 4
   751  00E9  1903               	skipnz
   752  00EA  28CE               	goto	l1633
   753  00EB  28EC               	goto	l1641
   754  00EC                     l1641:
   755                           
   756                           ;proyectofinal_main.c: 185:             if (antirrebote1>4)
   757  00EC  0873               	movf	_antirrebote1+1,w
   758  00ED  3A80               	xorlw	128
   759  00EE  00FF               	movwf	btemp+1
   760  00EF  3080               	movlw	128
   761  00F0  027F               	subwf	btemp+1,w
   762  00F1  1D03               	skipz
   763  00F2  28F5               	goto	u325
   764  00F3  3005               	movlw	5
   765  00F4  0272               	subwf	_antirrebote1,w
   766  00F5                     u325:
   767  00F5  1C03               	skipc
   768  00F6  28F8               	goto	u321
   769  00F7  28F9               	goto	u320
   770  00F8                     u321:
   771  00F8  28FB               	goto	l1645
   772  00F9                     u320:
   773  00F9                     l1643:
   774                           
   775                           ;proyectofinal_main.c: 186:             {;proyectofinal_main.c: 187:                 ant
      +                          irrebote1=0;
   776  00F9  01F2               	clrf	_antirrebote1
   777  00FA  01F3               	clrf	_antirrebote1+1
   778  00FB                     l1645:
   779                           
   780                           ;proyectofinal_main.c: 191:         if (RB1 == 1)
   781  00FB  1283               	bcf	3,5	;RP0=0, select bank0
   782  00FC  1303               	bcf	3,6	;RP1=0, select bank0
   783  00FD  1C86               	btfss	6,1	;volatile
   784  00FE  2900               	goto	u331
   785  00FF  2901               	goto	u330
   786  0100                     u331:
   787  0100  2905               	goto	l1649
   788  0101                     u330:
   789  0101                     l1647:
   790                           
   791                           ;proyectofinal_main.c: 192:             antirrebote2 = 1;
   792  0101  3001               	movlw	1
   793  0102  00F0               	movwf	_antirrebote2
   794  0103  3000               	movlw	0
   795  0104  00F1               	movwf	_antirrebote2+1
   796  0105                     l1649:
   797                           
   798                           ;proyectofinal_main.c: 194:         if (RB0 == 0 && antirrebote2 == 1)
   799  0105  1806               	btfsc	6,0	;volatile
   800  0106  2908               	goto	u341
   801  0107  2909               	goto	u340
   802  0108                     u341:
   803  0108  299F               	goto	l1699
   804  0109                     u340:
   805  0109                     l1651:
   806  0109  0370               	decf	_antirrebote2,w
   807  010A  0471               	iorwf	_antirrebote2+1,w
   808  010B  1D03               	btfss	3,2
   809  010C  290E               	goto	u351
   810  010D  290F               	goto	u350
   811  010E                     u351:
   812  010E  299F               	goto	l1699
   813  010F                     u350:
   814  010F  293C               	goto	l1681
   815  0110                     l1655:
   816                           
   817                           ;proyectofinal_main.c: 199:                      readFromEEPROM(potenciometro1[0]);
   818  0110  0820               	movf	_potenciometro1,w
   819  0111  120A  118A  22F2  120A  118A  	fcall	_readFromEEPROM
   820  0116                     l1657:
   821                           
   822                           ;proyectofinal_main.c: 200:                      antirrebote2++;
   823  0116  3001               	movlw	1
   824  0117  07F0               	addwf	_antirrebote2,f
   825  0118  1803               	skipnc
   826  0119  0AF1               	incf	_antirrebote2+1,f
   827  011A  3000               	movlw	0
   828  011B  07F1               	addwf	_antirrebote2+1,f
   829  011C                     l1659:
   830                           
   831                           ;proyectofinal_main.c: 201:                      _delay((unsigned long)((100)*(4000000/4
      +                          000.0)));
   832  011C  3082               	movlw	130
   833  011D  1283               	bcf	3,5	;RP0=0, select bank0
   834  011E  1303               	bcf	3,6	;RP1=0, select bank0
   835  011F  00AB               	movwf	??_main+1
   836  0120  30DD               	movlw	221
   837  0121  00AA               	movwf	??_main
   838  0122                     u427:
   839  0122  0BAA               	decfsz	??_main,f
   840  0123  2922               	goto	u427
   841  0124  0BAB               	decfsz	??_main+1,f
   842  0125  2922               	goto	u427
   843                           
   844                           ;proyectofinal_main.c: 202:                      break;
   845  0126  294F               	goto	l1683
   846  0127                     l1661:
   847                           
   848                           ;proyectofinal_main.c: 205:                      readFromEEPROM(potenciometro1[1]);
   849  0127  0821               	movf	_potenciometro1+1,w
   850  0128  120A  118A  22F2  120A  118A  	fcall	_readFromEEPROM
   851  012D  2916               	goto	l1657
   852  012E                     l1667:
   853                           
   854                           ;proyectofinal_main.c: 211:                      readFromEEPROM(potenciometro1[2]);
   855  012E  0822               	movf	_potenciometro1+2,w
   856  012F  120A  118A  22F2  120A  118A  	fcall	_readFromEEPROM
   857  0134  2916               	goto	l1657
   858  0135                     l1673:
   859                           
   860                           ;proyectofinal_main.c: 217:                      readFromEEPROM(potenciometro1[3]);
   861  0135  0823               	movf	_potenciometro1+3,w
   862  0136  120A  118A  22F2  120A  118A  	fcall	_readFromEEPROM
   863  013B  2916               	goto	l1657
   864  013C                     l1681:
   865                           
   866                           ; Switch on 2 bytes has been partitioned into a top level switch of size 1, and 1 sub-sw
      +                          itches
   867                           ; Switch size 1, requested type "simple"
   868                           ; Number of cases is 1, Range of values is 0 to 0
   869                           ; switch strategies available:
   870                           ; Name         Instructions Cycles
   871                           ; simple_byte            4     3 (average)
   872                           ; direct_byte           11     8 (fixed)
   873                           ; jumptable            260     6 (fixed)
   874                           ;	Chosen strategy is simple_byte
   875  013C  0871               	movf	_antirrebote2+1,w
   876  013D  3A00               	xorlw	0	; case 0
   877  013E  1903               	skipnz
   878  013F  2941               	goto	l1801
   879  0140  294F               	goto	l1683
   880  0141                     l1801:
   881                           
   882                           ; Switch size 1, requested type "simple"
   883                           ; Number of cases is 4, Range of values is 1 to 4
   884                           ; switch strategies available:
   885                           ; Name         Instructions Cycles
   886                           ; simple_byte           13     7 (average)
   887                           ; direct_byte           23    11 (fixed)
   888                           ; jumptable            263     9 (fixed)
   889                           ;	Chosen strategy is simple_byte
   890  0141  0870               	movf	_antirrebote2,w
   891  0142  3A01               	xorlw	1	; case 1
   892  0143  1903               	skipnz
   893  0144  2910               	goto	l1655
   894  0145  3A03               	xorlw	3	; case 2
   895  0146  1903               	skipnz
   896  0147  2927               	goto	l1661
   897  0148  3A01               	xorlw	1	; case 3
   898  0149  1903               	skipnz
   899  014A  292E               	goto	l1667
   900  014B  3A07               	xorlw	7	; case 4
   901  014C  1903               	skipnz
   902  014D  2935               	goto	l1673
   903  014E  294F               	goto	l1683
   904  014F                     l1683:
   905                           
   906                           ;proyectofinal_main.c: 222:              if (antirrebote2>4)
   907  014F  0871               	movf	_antirrebote2+1,w
   908  0150  3A80               	xorlw	128
   909  0151  00FF               	movwf	btemp+1
   910  0152  3080               	movlw	128
   911  0153  027F               	subwf	btemp+1,w
   912  0154  1D03               	skipz
   913  0155  2958               	goto	u365
   914  0156  3005               	movlw	5
   915  0157  0270               	subwf	_antirrebote2,w
   916  0158                     u365:
   917  0158  1C03               	skipc
   918  0159  295B               	goto	u361
   919  015A  295C               	goto	u360
   920  015B                     u361:
   921  015B  299F               	goto	l1699
   922  015C                     u360:
   923  015C                     l1685:
   924                           
   925                           ;proyectofinal_main.c: 223:              {;proyectofinal_main.c: 224:                  a
      +                          ntirrebote2=0;
   926  015C  01F0               	clrf	_antirrebote2
   927  015D  01F1               	clrf	_antirrebote2+1
   928  015E  299F               	goto	l1699
   929  015F                     l1687:
   930                           
   931                           ;proyectofinal_main.c: 232:                 cuenta=200;
   932  015F  30C8               	movlw	200
   933  0160  00F4               	movwf	_cuenta
   934  0161  3000               	movlw	0
   935  0162  00F5               	movwf	_cuenta+1
   936                           
   937                           ;proyectofinal_main.c: 233:                 TMR0 = 70;
   938  0163  3046               	movlw	70
   939  0164  0081               	movwf	1	;volatile
   940                           
   941                           ;proyectofinal_main.c: 234:                 TXREG = estado1_servos;
   942  0165  3030               	movlw	48
   943  0166  0099               	movwf	25	;volatile
   944                           
   945                           ;proyectofinal_main.c: 235:                 break;
   946  0167  283D               	goto	l1587
   947  0168                     l1689:
   948                           
   949                           ;proyectofinal_main.c: 238:                 cuenta=500;
   950  0168  30F4               	movlw	244
   951  0169  00F4               	movwf	_cuenta
   952  016A  3001               	movlw	1
   953  016B  00F5               	movwf	_cuenta+1
   954                           
   955                           ;proyectofinal_main.c: 239:                 TMR0 = 72;
   956  016C  3048               	movlw	72
   957  016D  0081               	movwf	1	;volatile
   958                           
   959                           ;proyectofinal_main.c: 240:                 TXREG=estado2_servos;
   960  016E  3031               	movlw	49
   961  016F  0099               	movwf	25	;volatile
   962                           
   963                           ;proyectofinal_main.c: 241:                 _delay((unsigned long)((100)*(4000000/4000.0
      +                          )));
   964  0170  3082               	movlw	130
   965  0171  1283               	bcf	3,5	;RP0=0, select bank0
   966  0172  1303               	bcf	3,6	;RP1=0, select bank0
   967  0173  00AB               	movwf	??_main+1
   968  0174  30DD               	movlw	221
   969  0175  00AA               	movwf	??_main
   970  0176                     u437:
   971  0176  0BAA               	decfsz	??_main,f
   972  0177  2976               	goto	u437
   973  0178  0BAB               	decfsz	??_main+1,f
   974  0179  2976               	goto	u437
   975                           
   976                           ;proyectofinal_main.c: 242:                 break;
   977  017A  283D               	goto	l1587
   978  017B                     l1691:
   979                           
   980                           ;proyectofinal_main.c: 245:                 cuenta=800;
   981  017B  3020               	movlw	32
   982  017C  00F4               	movwf	_cuenta
   983  017D  3003               	movlw	3
   984  017E  00F5               	movwf	_cuenta+1
   985                           
   986                           ;proyectofinal_main.c: 246:                 TMR0 = 74;
   987  017F  304A               	movlw	74
   988  0180  0081               	movwf	1	;volatile
   989                           
   990                           ;proyectofinal_main.c: 247:                 TXREG=estado3_servos;
   991  0181  3032               	movlw	50
   992  0182  0099               	movwf	25	;volatile
   993                           
   994                           ;proyectofinal_main.c: 248:                 _delay((unsigned long)((100)*(4000000/4000.0
      +                          )));
   995  0183  3082               	movlw	130
   996  0184  1283               	bcf	3,5	;RP0=0, select bank0
   997  0185  1303               	bcf	3,6	;RP1=0, select bank0
   998  0186  00AB               	movwf	??_main+1
   999  0187  30DD               	movlw	221
  1000  0188  00AA               	movwf	??_main
  1001  0189                     u447:
  1002  0189  0BAA               	decfsz	??_main,f
  1003  018A  2989               	goto	u447
  1004  018B  0BAB               	decfsz	??_main+1,f
  1005  018C  2989               	goto	u447
  1006                           
  1007                           ;proyectofinal_main.c: 249:                 break;
  1008  018D  283D               	goto	l1587
  1009  018E                     l1693:
  1010                           
  1011                           ;proyectofinal_main.c: 252:                 readFromEEPROM(potenciometro1[0]);
  1012  018E  0820               	movf	_potenciometro1,w
  1013  018F  120A  118A  22F2  120A  118A  	fcall	_readFromEEPROM
  1014  0194                     l1695:
  1015                           
  1016                           ;proyectofinal_main.c: 253:                 _delay((unsigned long)((100)*(4000000/4000.0
      +                          )));
  1017  0194  3082               	movlw	130
  1018  0195  1283               	bcf	3,5	;RP0=0, select bank0
  1019  0196  1303               	bcf	3,6	;RP1=0, select bank0
  1020  0197  00AB               	movwf	??_main+1
  1021  0198  30DD               	movlw	221
  1022  0199  00AA               	movwf	??_main
  1023  019A                     u457:
  1024  019A  0BAA               	decfsz	??_main,f
  1025  019B  299A               	goto	u457
  1026  019C  0BAB               	decfsz	??_main+1,f
  1027  019D  299A               	goto	u457
  1028                           
  1029                           ;proyectofinal_main.c: 254:                 break;
  1030  019E  283D               	goto	l1587
  1031  019F                     l1699:
  1032  019F  0876               	movf	_dato_recibido,w
  1033  01A0  1283               	bcf	3,5	;RP0=0, select bank0
  1034  01A1  1303               	bcf	3,6	;RP1=0, select bank0
  1035  01A2  00AA               	movwf	??_main
  1036  01A3  01AB               	clrf	??_main+1
  1037                           
  1038                           ; Switch on 2 bytes has been partitioned into a top level switch of size 1, and 1 sub-sw
      +                          itches
  1039                           ; Switch size 1, requested type "simple"
  1040                           ; Number of cases is 1, Range of values is 0 to 0
  1041                           ; switch strategies available:
  1042                           ; Name         Instructions Cycles
  1043                           ; simple_byte            4     3 (average)
  1044                           ; direct_byte           11     8 (fixed)
  1045                           ; jumptable            260     6 (fixed)
  1046                           ;	Chosen strategy is simple_byte
  1047  01A4  082B               	movf	??_main+1,w
  1048  01A5  3A00               	xorlw	0	; case 0
  1049  01A6  1903               	skipnz
  1050  01A7  29A9               	goto	l1803
  1051  01A8  283D               	goto	l1587
  1052  01A9                     l1803:
  1053                           
  1054                           ; Switch size 1, requested type "simple"
  1055                           ; Number of cases is 4, Range of values is 48 to 51
  1056                           ; switch strategies available:
  1057                           ; Name         Instructions Cycles
  1058                           ; simple_byte           13     7 (average)
  1059                           ; direct_byte           23    11 (fixed)
  1060                           ; jumptable            263     9 (fixed)
  1061                           ;	Chosen strategy is simple_byte
  1062  01A9  082A               	movf	??_main,w
  1063  01AA  3A30               	xorlw	48	; case 48
  1064  01AB  1903               	skipnz
  1065  01AC  295F               	goto	l1687
  1066  01AD  3A01               	xorlw	1	; case 49
  1067  01AE  1903               	skipnz
  1068  01AF  2968               	goto	l1689
  1069  01B0  3A03               	xorlw	3	; case 50
  1070  01B1  1903               	skipnz
  1071  01B2  297B               	goto	l1691
  1072  01B3  3A01               	xorlw	1	; case 51
  1073  01B4  1903               	skipnz
  1074  01B5  298E               	goto	l1693
  1075  01B6  283D               	goto	l1587
  1076  01B7  120A  118A  2810   	ljmp	start
  1077  01BA                     __end_of_main:
  1078                           
  1079                           	psect	text1
  1080  02BC                     __ptext1:	
  1081 ;; *************** function _writeToEEPROM *****************
  1082 ;; Defined at:
  1083 ;;		line 366 in file "proyectofinal_main.c"
  1084 ;; Parameters:    Size  Location     Type
  1085 ;;  data            1    wreg     unsigned char 
  1086 ;;  address         1    0[BANK0 ] unsigned char 
  1087 ;; Auto vars:     Size  Location     Type
  1088 ;;  data            1    1[BANK0 ] unsigned char 
  1089 ;; Return value:  Size  Location     Type
  1090 ;;                  1    wreg      void 
  1091 ;; Registers used:
  1092 ;;		wreg
  1093 ;; Tracked objects:
  1094 ;;		On entry : 0/0
  1095 ;;		On exit  : 0/0
  1096 ;;		Unchanged: 0/0
  1097 ;; Data sizes:     COMMON   BANK0   BANK1   BANK3   BANK2
  1098 ;;      Params:         0       1       0       0       0
  1099 ;;      Locals:         0       1       0       0       0
  1100 ;;      Temps:          0       0       0       0       0
  1101 ;;      Totals:         0       2       0       0       0
  1102 ;;Total ram usage:        2 bytes
  1103 ;; Hardware stack levels used:    1
  1104 ;; Hardware stack levels required when called:    1
  1105 ;; This function calls:
  1106 ;;		Nothing
  1107 ;; This function is called by:
  1108 ;;		_main
  1109 ;; This function uses a non-reentrant model
  1110 ;;
  1111                           
  1112                           
  1113                           ;psect for function _writeToEEPROM
  1114  02BC                     _writeToEEPROM:
  1115                           
  1116                           ;incstack = 0
  1117                           ; Regs used in _writeToEEPROM: [wreg]
  1118                           ;writeToEEPROM@data stored from wreg
  1119  02BC  1283               	bcf	3,5	;RP0=0, select bank0
  1120  02BD  1303               	bcf	3,6	;RP1=0, select bank0
  1121  02BE  00A9               	movwf	writeToEEPROM@data
  1122  02BF                     l1563:
  1123                           
  1124                           ;proyectofinal_main.c: 366: void writeToEEPROM(uint8_t data, uint8_t address);proyectofi
      +                          nal_main.c: 367: {;proyectofinal_main.c: 368:     EEADR = address;
  1125  02BF  0828               	movf	writeToEEPROM@address,w
  1126  02C0  1283               	bcf	3,5	;RP0=0, select bank2
  1127  02C1  1703               	bsf	3,6	;RP1=1, select bank2
  1128  02C2  008D               	movwf	13	;volatile
  1129                           
  1130                           ;proyectofinal_main.c: 369:     EEDAT = data;
  1131  02C3  1283               	bcf	3,5	;RP0=0, select bank0
  1132  02C4  1303               	bcf	3,6	;RP1=0, select bank0
  1133  02C5  0829               	movf	writeToEEPROM@data,w
  1134  02C6  1283               	bcf	3,5	;RP0=0, select bank2
  1135  02C7  1703               	bsf	3,6	;RP1=1, select bank2
  1136  02C8  008C               	movwf	12	;volatile
  1137  02C9                     l1565:
  1138                           
  1139                           ;proyectofinal_main.c: 371:     EECON1bits.EEPGD = 0;
  1140  02C9  1683               	bsf	3,5	;RP0=1, select bank3
  1141  02CA  1703               	bsf	3,6	;RP1=1, select bank3
  1142  02CB  138C               	bcf	12,7	;volsfr
  1143  02CC                     l1567:
  1144                           
  1145                           ;proyectofinal_main.c: 372:     EECON1bits.WREN = 1;
  1146  02CC  150C               	bsf	12,2	;volsfr
  1147  02CD                     l1569:
  1148                           
  1149                           ;proyectofinal_main.c: 374:     INTCONbits.GIE = 0;
  1150  02CD  138B               	bcf	11,7	;volatile
  1151                           
  1152                           ;proyectofinal_main.c: 376:     EECON2 = 0x55;
  1153  02CE  3055               	movlw	85
  1154  02CF  008D               	movwf	13	;volsfr
  1155                           
  1156                           ;proyectofinal_main.c: 377:     EECON2 = 0xAA;
  1157  02D0  30AA               	movlw	170
  1158  02D1  008D               	movwf	13	;volsfr
  1159  02D2                     l1571:
  1160                           
  1161                           ;proyectofinal_main.c: 378:     EECON1bits.WR = 1;
  1162  02D2  148C               	bsf	12,1	;volsfr
  1163  02D3                     l161:	
  1164                           ;proyectofinal_main.c: 380:     while(PIR2bits.EEIF==0);
  1165                           
  1166  02D3  1283               	bcf	3,5	;RP0=0, select bank0
  1167  02D4  1303               	bcf	3,6	;RP1=0, select bank0
  1168  02D5  1E0D               	btfss	13,4	;volatile
  1169  02D6  2AD8               	goto	u271
  1170  02D7  2AD9               	goto	u270
  1171  02D8                     u271:
  1172  02D8  2AD3               	goto	l161
  1173  02D9                     u270:
  1174  02D9                     l163:
  1175                           
  1176                           ;proyectofinal_main.c: 381:     PIR2bits.EEIF = 0;
  1177  02D9  120D               	bcf	13,4	;volatile
  1178                           
  1179                           ;proyectofinal_main.c: 383:     INTCONbits.GIE = 1;
  1180  02DA  178B               	bsf	11,7	;volatile
  1181                           
  1182                           ;proyectofinal_main.c: 384:     EECON1bits.WREN = 0;
  1183  02DB  1683               	bsf	3,5	;RP0=1, select bank3
  1184  02DC  1703               	bsf	3,6	;RP1=1, select bank3
  1185  02DD  110C               	bcf	12,2	;volsfr
  1186  02DE                     l164:	
  1187                           ;proyectofinal_main.c: 385:     return;
  1188                           
  1189  02DE  0008               	return
  1190  02DF                     __end_of_writeToEEPROM:
  1191                           
  1192                           	psect	text2
  1193  0241                     __ptext2:	
  1194 ;; *************** function _setup *****************
  1195 ;; Defined at:
  1196 ;;		line 266 in file "proyectofinal_main.c"
  1197 ;; Parameters:    Size  Location     Type
  1198 ;;		None
  1199 ;; Auto vars:     Size  Location     Type
  1200 ;;		None
  1201 ;; Return value:  Size  Location     Type
  1202 ;;                  1    wreg      void 
  1203 ;; Registers used:
  1204 ;;		wreg, status,2, status,0
  1205 ;; Tracked objects:
  1206 ;;		On entry : 0/0
  1207 ;;		On exit  : 0/0
  1208 ;;		Unchanged: 0/0
  1209 ;; Data sizes:     COMMON   BANK0   BANK1   BANK3   BANK2
  1210 ;;      Params:         0       0       0       0       0
  1211 ;;      Locals:         0       0       0       0       0
  1212 ;;      Temps:          0       1       0       0       0
  1213 ;;      Totals:         0       1       0       0       0
  1214 ;;Total ram usage:        1 bytes
  1215 ;; Hardware stack levels used:    1
  1216 ;; Hardware stack levels required when called:    1
  1217 ;; This function calls:
  1218 ;;		Nothing
  1219 ;; This function is called by:
  1220 ;;		_main
  1221 ;; This function uses a non-reentrant model
  1222 ;;
  1223                           
  1224                           
  1225                           ;psect for function _setup
  1226  0241                     _setup:
  1227  0241                     l1467:	
  1228                           ;incstack = 0
  1229                           ; Regs used in _setup: [wreg+status,2+status,0]
  1230                           
  1231                           
  1232                           ;proyectofinal_main.c: 269:     ANSELbits.ANS0=1;
  1233  0241  1683               	bsf	3,5	;RP0=1, select bank3
  1234  0242  1703               	bsf	3,6	;RP1=1, select bank3
  1235  0243  1408               	bsf	8,0	;volatile
  1236                           
  1237                           ;proyectofinal_main.c: 270:     ANSELbits.ANS1=1;
  1238  0244  1488               	bsf	8,1	;volatile
  1239                           
  1240                           ;proyectofinal_main.c: 271:     ANSELbits.ANS2=1;
  1241  0245  1508               	bsf	8,2	;volatile
  1242                           
  1243                           ;proyectofinal_main.c: 273:     TRISAbits.TRISA0=1;
  1244  0246  1683               	bsf	3,5	;RP0=1, select bank1
  1245  0247  1303               	bcf	3,6	;RP1=0, select bank1
  1246  0248  1405               	bsf	5,0	;volatile
  1247                           
  1248                           ;proyectofinal_main.c: 274:     TRISAbits.TRISA1=1;
  1249  0249  1485               	bsf	5,1	;volatile
  1250                           
  1251                           ;proyectofinal_main.c: 275:     TRISAbits.TRISA2=1;
  1252  024A  1505               	bsf	5,2	;volatile
  1253  024B                     l1469:
  1254                           
  1255                           ;proyectofinal_main.c: 277:     TRISB=0xff;
  1256  024B  30FF               	movlw	255
  1257  024C  0086               	movwf	6	;volatile
  1258  024D                     l1471:
  1259                           
  1260                           ;proyectofinal_main.c: 279:     TRISD=0x00;
  1261  024D  0188               	clrf	8	;volatile
  1262  024E                     l1473:
  1263                           
  1264                           ;proyectofinal_main.c: 280:     TRISE=0x00;
  1265  024E  0189               	clrf	9	;volatile
  1266  024F                     l1475:
  1267                           
  1268                           ;proyectofinal_main.c: 282:     PORTA=0x00;
  1269  024F  1283               	bcf	3,5	;RP0=0, select bank0
  1270  0250  1303               	bcf	3,6	;RP1=0, select bank0
  1271  0251  0185               	clrf	5	;volatile
  1272  0252                     l1477:
  1273                           
  1274                           ;proyectofinal_main.c: 283:     PORTB=0x00;
  1275  0252  0186               	clrf	6	;volatile
  1276  0253                     l1479:
  1277                           
  1278                           ;proyectofinal_main.c: 284:     PORTD=0x00;
  1279  0253  0188               	clrf	8	;volatile
  1280  0254                     l1481:
  1281                           
  1282                           ;proyectofinal_main.c: 285:     PORTE=0x00;
  1283  0254  0189               	clrf	9	;volatile
  1284  0255                     l1483:
  1285                           
  1286                           ;proyectofinal_main.c: 288:     OSCCONbits.IRCF = 0b110;
  1287  0255  1683               	bsf	3,5	;RP0=1, select bank1
  1288  0256  1303               	bcf	3,6	;RP1=0, select bank1
  1289  0257  080F               	movf	15,w	;volatile
  1290  0258  398F               	andlw	-113
  1291  0259  3860               	iorlw	96
  1292  025A  008F               	movwf	15	;volatile
  1293  025B                     l1485:
  1294                           
  1295                           ;proyectofinal_main.c: 289:     OSCCONbits.SCS = 1;
  1296  025B  140F               	bsf	15,0	;volatile
  1297  025C                     l1487:
  1298                           
  1299                           ;proyectofinal_main.c: 292:     OPTION_REGbits.T0CS = 0;
  1300  025C  1281               	bcf	1,5	;volatile
  1301  025D                     l1489:
  1302                           
  1303                           ;proyectofinal_main.c: 293:     OPTION_REGbits.PSA = 0;
  1304  025D  1181               	bcf	1,3	;volatile
  1305  025E                     l1491:
  1306                           
  1307                           ;proyectofinal_main.c: 294:     OPTION_REGbits.PS = 0b111;
  1308  025E  3007               	movlw	7
  1309  025F  0481               	iorwf	1,f	;volatile
  1310                           
  1311                           ;proyectofinal_main.c: 295:     TMR0 = 78;
  1312  0260  304E               	movlw	78
  1313  0261  1283               	bcf	3,5	;RP0=0, select bank0
  1314  0262  1303               	bcf	3,6	;RP1=0, select bank0
  1315  0263  0081               	movwf	1	;volatile
  1316  0264                     l1493:
  1317                           
  1318                           ;proyectofinal_main.c: 305:     ADCON1bits.ADFM = 0 ;
  1319  0264  1683               	bsf	3,5	;RP0=1, select bank1
  1320  0265  1303               	bcf	3,6	;RP1=0, select bank1
  1321  0266  139F               	bcf	31,7	;volatile
  1322  0267                     l1495:
  1323                           
  1324                           ;proyectofinal_main.c: 306:     ADCON1bits.VCFG0 = 0 ;
  1325  0267  121F               	bcf	31,4	;volatile
  1326  0268                     l1497:
  1327                           
  1328                           ;proyectofinal_main.c: 307:     ADCON1bits.VCFG1 = 0 ;
  1329  0268  129F               	bcf	31,5	;volatile
  1330  0269                     l1499:
  1331                           
  1332                           ;proyectofinal_main.c: 308:     ADCON0bits.ADCS = 0b01 ;
  1333  0269  1283               	bcf	3,5	;RP0=0, select bank0
  1334  026A  1303               	bcf	3,6	;RP1=0, select bank0
  1335  026B  081F               	movf	31,w	;volatile
  1336  026C  393F               	andlw	-193
  1337  026D  3840               	iorlw	64
  1338  026E  009F               	movwf	31	;volatile
  1339  026F                     l1501:
  1340                           
  1341                           ;proyectofinal_main.c: 309:     ADCON0bits.CHS = 0;
  1342  026F  30C3               	movlw	-61
  1343  0270  059F               	andwf	31,f	;volatile
  1344                           
  1345                           ;proyectofinal_main.c: 310:     _delay((unsigned long)((100)*(4000000/4000000.0)));
  1346  0271  3020               	movlw	32
  1347  0272  1283               	bcf	3,5	;RP0=0, select bank0
  1348  0273  1303               	bcf	3,6	;RP1=0, select bank0
  1349  0274  00A8               	movwf	??_setup
  1350  0275                     u467:
  1351  0275  0BA8               	decfsz	??_setup,f
  1352  0276  2A75               	goto	u467
  1353  0277  0000               	nop
  1354  0278                     l1503:
  1355                           
  1356                           ;proyectofinal_main.c: 311:     ADCON0bits.ADON = 1 ;
  1357  0278  1283               	bcf	3,5	;RP0=0, select bank0
  1358  0279  1303               	bcf	3,6	;RP1=0, select bank0
  1359  027A  141F               	bsf	31,0	;volatile
  1360  027B                     l1505:
  1361                           
  1362                           ;proyectofinal_main.c: 316:     TRISCbits.TRISC2=1;
  1363  027B  1683               	bsf	3,5	;RP0=1, select bank1
  1364  027C  1303               	bcf	3,6	;RP1=0, select bank1
  1365  027D  1507               	bsf	7,2	;volatile
  1366  027E                     l1507:
  1367                           
  1368                           ;proyectofinal_main.c: 317:     CCP1CONbits.P1M = 0;
  1369  027E  303F               	movlw	-193
  1370  027F  1283               	bcf	3,5	;RP0=0, select bank0
  1371  0280  1303               	bcf	3,6	;RP1=0, select bank0
  1372  0281  0597               	andwf	23,f	;volatile
  1373  0282                     l1509:
  1374                           
  1375                           ;proyectofinal_main.c: 318:     CCP1CONbits.CCP1M = 0b1100;
  1376  0282  0817               	movf	23,w	;volatile
  1377  0283  39F0               	andlw	-16
  1378  0284  380C               	iorlw	12
  1379  0285  0097               	movwf	23	;volatile
  1380                           
  1381                           ;proyectofinal_main.c: 319:     CCPR1L = 0x0f ;
  1382  0286  300F               	movlw	15
  1383  0287  0095               	movwf	21	;volatile
  1384  0288                     l1511:
  1385                           
  1386                           ;proyectofinal_main.c: 320:     CCP1CONbits.DC1B = 0;
  1387  0288  30CF               	movlw	-49
  1388  0289  0597               	andwf	23,f	;volatile
  1389  028A                     l1513:
  1390                           
  1391                           ;proyectofinal_main.c: 322:     TRISCbits.TRISC1 = 1;
  1392  028A  1683               	bsf	3,5	;RP0=1, select bank1
  1393  028B  1303               	bcf	3,6	;RP1=0, select bank1
  1394  028C  1487               	bsf	7,1	;volatile
  1395  028D                     l1515:
  1396                           
  1397                           ;proyectofinal_main.c: 323:     CCP2CONbits.CCP2M = 0b1100;
  1398  028D  1283               	bcf	3,5	;RP0=0, select bank0
  1399  028E  1303               	bcf	3,6	;RP1=0, select bank0
  1400  028F  081D               	movf	29,w	;volatile
  1401  0290  39F0               	andlw	-16
  1402  0291  380C               	iorlw	12
  1403  0292  009D               	movwf	29	;volatile
  1404                           
  1405                           ;proyectofinal_main.c: 324:     CCPR2L = 0x0f;
  1406  0293  300F               	movlw	15
  1407  0294  009B               	movwf	27	;volatile
  1408  0295                     l1517:
  1409                           
  1410                           ;proyectofinal_main.c: 325:     CCP2CONbits.DC2B1 = 0;
  1411  0295  129D               	bcf	29,5	;volatile
  1412  0296                     l1519:
  1413                           
  1414                           ;proyectofinal_main.c: 328:     PIR1bits.TMR2IF = 0;
  1415  0296  108C               	bcf	12,1	;volatile
  1416  0297                     l1521:
  1417                           
  1418                           ;proyectofinal_main.c: 329:     T2CONbits.T2CKPS = 0b11;
  1419  0297  3003               	movlw	3
  1420  0298  0492               	iorwf	18,f	;volatile
  1421  0299                     l1523:
  1422                           
  1423                           ;proyectofinal_main.c: 330:     T2CONbits.TMR2ON = 1;
  1424  0299  1512               	bsf	18,2	;volatile
  1425  029A                     l1525:
  1426                           
  1427                           ;proyectofinal_main.c: 333:     PIR1bits.TMR2IF=0;
  1428  029A  108C               	bcf	12,1	;volatile
  1429  029B                     l1527:
  1430                           
  1431                           ;proyectofinal_main.c: 334:     TRISCbits.TRISC2 = 0;
  1432  029B  1683               	bsf	3,5	;RP0=1, select bank1
  1433  029C  1303               	bcf	3,6	;RP1=0, select bank1
  1434  029D  1107               	bcf	7,2	;volatile
  1435  029E                     l1529:
  1436                           
  1437                           ;proyectofinal_main.c: 335:     TRISCbits.TRISC1= 0;
  1438  029E  1087               	bcf	7,1	;volatile
  1439  029F                     l1531:
  1440                           
  1441                           ;proyectofinal_main.c: 339:     TXSTAbits.SYNC = 0;
  1442  029F  1218               	bcf	24,4	;volatile
  1443  02A0                     l1533:
  1444                           
  1445                           ;proyectofinal_main.c: 340:     TXSTAbits.BRGH = 1;
  1446  02A0  1518               	bsf	24,2	;volatile
  1447  02A1                     l1535:
  1448                           
  1449                           ;proyectofinal_main.c: 342:     BAUDCTLbits.BRG16 = 1;
  1450  02A1  1683               	bsf	3,5	;RP0=1, select bank3
  1451  02A2  1703               	bsf	3,6	;RP1=1, select bank3
  1452  02A3  1587               	bsf	7,3	;volatile
  1453  02A4                     l1537:
  1454                           
  1455                           ;proyectofinal_main.c: 343:     SPBRG = 25;
  1456  02A4  3019               	movlw	25
  1457  02A5  1683               	bsf	3,5	;RP0=1, select bank1
  1458  02A6  1303               	bcf	3,6	;RP1=0, select bank1
  1459  02A7  0099               	movwf	25	;volatile
  1460  02A8                     l1539:
  1461                           
  1462                           ;proyectofinal_main.c: 344:     SPBRGH = 0;
  1463  02A8  019A               	clrf	26	;volatile
  1464  02A9                     l1541:
  1465                           
  1466                           ;proyectofinal_main.c: 346:     RCSTAbits.SPEN = 1;
  1467  02A9  1283               	bcf	3,5	;RP0=0, select bank0
  1468  02AA  1303               	bcf	3,6	;RP1=0, select bank0
  1469  02AB  1798               	bsf	24,7	;volatile
  1470  02AC                     l1543:
  1471                           
  1472                           ;proyectofinal_main.c: 347:     RCSTAbits.RX9 = 0;
  1473  02AC  1318               	bcf	24,6	;volatile
  1474  02AD                     l1545:
  1475                           
  1476                           ;proyectofinal_main.c: 349:     RCSTAbits.CREN = 1;
  1477  02AD  1618               	bsf	24,4	;volatile
  1478  02AE                     l1547:
  1479                           
  1480                           ;proyectofinal_main.c: 350:     TXSTAbits.TXEN = 1;
  1481  02AE  1683               	bsf	3,5	;RP0=1, select bank1
  1482  02AF  1303               	bcf	3,6	;RP1=0, select bank1
  1483  02B0  1698               	bsf	24,5	;volatile
  1484  02B1                     l1549:
  1485                           
  1486                           ;proyectofinal_main.c: 353:     INTCONbits.GIE=1;
  1487  02B1  178B               	bsf	11,7	;volatile
  1488  02B2                     l1551:
  1489                           
  1490                           ;proyectofinal_main.c: 354:     INTCONbits.PEIE = 1;
  1491  02B2  170B               	bsf	11,6	;volatile
  1492  02B3                     l1553:
  1493                           
  1494                           ;proyectofinal_main.c: 355:     INTCONbits.T0IE=1;
  1495  02B3  168B               	bsf	11,5	;volatile
  1496  02B4                     l1555:
  1497                           
  1498                           ;proyectofinal_main.c: 356:     INTCONbits.T0IF=0;
  1499  02B4  110B               	bcf	11,2	;volatile
  1500  02B5                     l1557:
  1501                           
  1502                           ;proyectofinal_main.c: 357:     PIR1bits.RCIF = 0;
  1503  02B5  1283               	bcf	3,5	;RP0=0, select bank0
  1504  02B6  1303               	bcf	3,6	;RP1=0, select bank0
  1505  02B7  128C               	bcf	12,5	;volatile
  1506  02B8                     l1559:
  1507                           
  1508                           ;proyectofinal_main.c: 358:     PIE1bits.RCIE = 1;
  1509  02B8  1683               	bsf	3,5	;RP0=1, select bank1
  1510  02B9  1303               	bcf	3,6	;RP1=0, select bank1
  1511  02BA  168C               	bsf	12,5	;volatile
  1512  02BB                     l158:
  1513  02BB  0008               	return
  1514  02BC                     __end_of_setup:
  1515                           
  1516                           	psect	text3
  1517  02F2                     __ptext3:	
  1518 ;; *************** function _readFromEEPROM *****************
  1519 ;; Defined at:
  1520 ;;		line 389 in file "proyectofinal_main.c"
  1521 ;; Parameters:    Size  Location     Type
  1522 ;;  address         1    wreg     unsigned char 
  1523 ;; Auto vars:     Size  Location     Type
  1524 ;;  address         1    1[BANK0 ] unsigned char 
  1525 ;;  data            1    0        unsigned char 
  1526 ;; Return value:  Size  Location     Type
  1527 ;;                  1    wreg      unsigned char 
  1528 ;; Registers used:
  1529 ;;		wreg
  1530 ;; Tracked objects:
  1531 ;;		On entry : 0/0
  1532 ;;		On exit  : 0/0
  1533 ;;		Unchanged: 0/0
  1534 ;; Data sizes:     COMMON   BANK0   BANK1   BANK3   BANK2
  1535 ;;      Params:         0       0       0       0       0
  1536 ;;      Locals:         0       2       0       0       0
  1537 ;;      Temps:          0       0       0       0       0
  1538 ;;      Totals:         0       2       0       0       0
  1539 ;;Total ram usage:        2 bytes
  1540 ;; Hardware stack levels used:    1
  1541 ;; Hardware stack levels required when called:    1
  1542 ;; This function calls:
  1543 ;;		Nothing
  1544 ;; This function is called by:
  1545 ;;		_main
  1546 ;; This function uses a non-reentrant model
  1547 ;;
  1548                           
  1549                           
  1550                           ;psect for function _readFromEEPROM
  1551  02F2                     _readFromEEPROM:
  1552                           
  1553                           ;incstack = 0
  1554                           ; Regs used in _readFromEEPROM: [wreg]
  1555                           ;readFromEEPROM@address stored from wreg
  1556  02F2  1283               	bcf	3,5	;RP0=0, select bank0
  1557  02F3  1303               	bcf	3,6	;RP1=0, select bank0
  1558  02F4  00A9               	movwf	readFromEEPROM@address
  1559  02F5                     l1573:
  1560                           
  1561                           ;proyectofinal_main.c: 389: uint8_t readFromEEPROM(uint8_t address);proyectofinal_main.c
      +                          : 390: {;proyectofinal_main.c: 391:     EEADR = address;
  1562  02F5  0829               	movf	readFromEEPROM@address,w
  1563  02F6  1283               	bcf	3,5	;RP0=0, select bank2
  1564  02F7  1703               	bsf	3,6	;RP1=1, select bank2
  1565  02F8  008D               	movwf	13	;volatile
  1566  02F9                     l1575:
  1567                           
  1568                           ;proyectofinal_main.c: 392:     EECON1bits.EEPGD = 0;
  1569  02F9  1683               	bsf	3,5	;RP0=1, select bank3
  1570  02FA  1703               	bsf	3,6	;RP1=1, select bank3
  1571  02FB  138C               	bcf	12,7	;volsfr
  1572  02FC                     l1577:
  1573                           
  1574                           ;proyectofinal_main.c: 393:     EECON1bits.RD = 1;
  1575  02FC  140C               	bsf	12,0	;volsfr
  1576  02FD  1283               	bcf	3,5	;RP0=0, select bank2
  1577  02FE  1703               	bsf	3,6	;RP1=1, select bank2
  1578  02FF  080C               	movf	12,w	;volatile
  1579  0300                     l167:
  1580  0300  0008               	return
  1581  0301                     __end_of_readFromEEPROM:
  1582                           
  1583                           	psect	text4
  1584  01BA                     __ptext4:	
  1585 ;; *************** function _isr *****************
  1586 ;; Defined at:
  1587 ;;		line 70 in file "proyectofinal_main.c"
  1588 ;; Parameters:    Size  Location     Type
  1589 ;;		None
  1590 ;; Auto vars:     Size  Location     Type
  1591 ;;		None
  1592 ;; Return value:  Size  Location     Type
  1593 ;;                  1    wreg      void 
  1594 ;; Registers used:
  1595 ;;		wreg, btemp+1
  1596 ;; Tracked objects:
  1597 ;;		On entry : 0/0
  1598 ;;		On exit  : 0/0
  1599 ;;		Unchanged: 0/0
  1600 ;; Data sizes:     COMMON   BANK0   BANK1   BANK3   BANK2
  1601 ;;      Params:         0       0       0       0       0
  1602 ;;      Locals:         0       0       0       0       0
  1603 ;;      Temps:          5       0       0       0       0
  1604 ;;      Totals:         5       0       0       0       0
  1605 ;;Total ram usage:        5 bytes
  1606 ;; Hardware stack levels used:    1
  1607 ;; This function calls:
  1608 ;;		Nothing
  1609 ;; This function is called by:
  1610 ;;		Interrupt level 1
  1611 ;; This function uses a non-reentrant model
  1612 ;;
  1613                           
  1614                           
  1615                           ;psect for function _isr
  1616  01BA                     _isr:
  1617  01BA                     i1l873:
  1618                           
  1619                           ;proyectofinal_main.c: 73:     if (INTCONbits.T0IF)
  1620  01BA  1D0B               	btfss	11,2	;volatile
  1621  01BB  29BD               	goto	u2_21
  1622  01BC  29BE               	goto	u2_20
  1623  01BD                     u2_21:
  1624  01BD  2A32               	goto	i1l917
  1625  01BE                     u2_20:
  1626  01BE                     i1l875:
  1627                           
  1628                           ;proyectofinal_main.c: 74:     {;proyectofinal_main.c: 75:         if (cuenta >0 && cuen
      +                          ta <340)
  1629  01BE  0875               	movf	_cuenta+1,w
  1630  01BF  3A80               	xorlw	128
  1631  01C0  00FF               	movwf	btemp+1
  1632  01C1  3080               	movlw	128
  1633  01C2  027F               	subwf	btemp+1,w
  1634  01C3  1D03               	skipz
  1635  01C4  29C7               	goto	u3_25
  1636  01C5  3001               	movlw	1
  1637  01C6  0274               	subwf	_cuenta,w
  1638  01C7                     u3_25:
  1639  01C7  1C03               	skipc
  1640  01C8  29CA               	goto	u3_21
  1641  01C9  29CB               	goto	u3_20
  1642  01CA                     u3_21:
  1643  01CA  29EF               	goto	i1l891
  1644  01CB                     u3_20:
  1645  01CB                     i1l877:
  1646  01CB  0875               	movf	_cuenta+1,w
  1647  01CC  3A80               	xorlw	128
  1648  01CD  00FF               	movwf	btemp+1
  1649  01CE  3081               	movlw	129
  1650  01CF  027F               	subwf	btemp+1,w
  1651  01D0  1D03               	skipz
  1652  01D1  29D4               	goto	u4_25
  1653  01D2  3054               	movlw	84
  1654  01D3  0274               	subwf	_cuenta,w
  1655  01D4                     u4_25:
  1656  01D4  1803               	skipnc
  1657  01D5  29D7               	goto	u4_21
  1658  01D6  29D8               	goto	u4_20
  1659  01D7                     u4_21:
  1660  01D7  29EF               	goto	i1l891
  1661  01D8                     u4_20:
  1662  01D8                     i1l879:
  1663                           
  1664                           ;proyectofinal_main.c: 76:         {;proyectofinal_main.c: 77:             PORTDbits.RD0
      +                          =1;
  1665  01D8  1283               	bcf	3,5	;RP0=0, select bank0
  1666  01D9  1303               	bcf	3,6	;RP1=0, select bank0
  1667  01DA  1408               	bsf	8,0	;volatile
  1668                           
  1669                           ;proyectofinal_main.c: 78:             PORTDbits.RD1=1;
  1670  01DB  1488               	bsf	8,1	;volatile
  1671                           
  1672                           ;proyectofinal_main.c: 79:             PORTDbits.RD2=1;
  1673  01DC  1508               	bsf	8,2	;volatile
  1674  01DD                     i1l881:
  1675                           
  1676                           ;proyectofinal_main.c: 80:             _delay((unsigned long)((2)*(4000000/4000.0)));
  1677  01DD  3003               	movlw	3
  1678  01DE  00F8               	movwf	??_isr+1
  1679  01DF  3097               	movlw	151
  1680  01E0  00F7               	movwf	??_isr
  1681  01E1                     u47_27:
  1682  01E1  0BF7               	decfsz	??_isr,f
  1683  01E2  29E1               	goto	u47_27
  1684  01E3  0BF8               	decfsz	??_isr+1,f
  1685  01E4  29E1               	goto	u47_27
  1686  01E5  29E6               	nop2
  1687  01E6                     i1l883:
  1688                           
  1689                           ;proyectofinal_main.c: 81:             PORTDbits.RD0=0;
  1690  01E6  1283               	bcf	3,5	;RP0=0, select bank0
  1691  01E7  1303               	bcf	3,6	;RP1=0, select bank0
  1692  01E8  1008               	bcf	8,0	;volatile
  1693  01E9                     i1l885:
  1694                           
  1695                           ;proyectofinal_main.c: 82:             PORTDbits.RD1=0;
  1696  01E9  1088               	bcf	8,1	;volatile
  1697  01EA                     i1l887:
  1698                           
  1699                           ;proyectofinal_main.c: 83:             PORTDbits.RD2=0;
  1700  01EA  1108               	bcf	8,2	;volatile
  1701                           
  1702                           ;proyectofinal_main.c: 84:             TMR0 = 70;
  1703  01EB  3046               	movlw	70
  1704  01EC  0081               	movwf	1	;volatile
  1705  01ED                     i1l889:
  1706                           
  1707                           ;proyectofinal_main.c: 85:             INTCONbits.T0IF = 0;
  1708  01ED  110B               	bcf	11,2	;volatile
  1709                           
  1710                           ;proyectofinal_main.c: 86:         }
  1711  01EE  2A32               	goto	i1l917
  1712  01EF                     i1l891:
  1713  01EF  0875               	movf	_cuenta+1,w
  1714  01F0  3A80               	xorlw	128
  1715  01F1  00FF               	movwf	btemp+1
  1716  01F2  3081               	movlw	129
  1717  01F3  027F               	subwf	btemp+1,w
  1718  01F4  1D03               	skipz
  1719  01F5  29F8               	goto	u5_25
  1720  01F6  3055               	movlw	85
  1721  01F7  0274               	subwf	_cuenta,w
  1722  01F8                     u5_25:
  1723  01F8  1C03               	skipc
  1724  01F9  29FB               	goto	u5_21
  1725  01FA  29FC               	goto	u5_20
  1726  01FB                     u5_21:
  1727  01FB  2A1E               	goto	i1l114
  1728  01FC                     u5_20:
  1729  01FC                     i1l893:
  1730  01FC  0875               	movf	_cuenta+1,w
  1731  01FD  3A80               	xorlw	128
  1732  01FE  00FF               	movwf	btemp+1
  1733  01FF  3082               	movlw	130
  1734  0200  027F               	subwf	btemp+1,w
  1735  0201  1D03               	skipz
  1736  0202  2A05               	goto	u6_25
  1737  0203  30AA               	movlw	170
  1738  0204  0274               	subwf	_cuenta,w
  1739  0205                     u6_25:
  1740  0205  1803               	skipnc
  1741  0206  2A08               	goto	u6_21
  1742  0207  2A09               	goto	u6_20
  1743  0208                     u6_21:
  1744  0208  2A1E               	goto	i1l114
  1745  0209                     u6_20:
  1746  0209                     i1l895:
  1747                           
  1748                           ;proyectofinal_main.c: 88:         {;proyectofinal_main.c: 89:             PORTDbits.RD0
      +                          =1;
  1749  0209  1283               	bcf	3,5	;RP0=0, select bank0
  1750  020A  1303               	bcf	3,6	;RP1=0, select bank0
  1751  020B  1408               	bsf	8,0	;volatile
  1752                           
  1753                           ;proyectofinal_main.c: 90:             PORTDbits.RD1=1;
  1754  020C  1488               	bsf	8,1	;volatile
  1755                           
  1756                           ;proyectofinal_main.c: 91:             PORTDbits.RD2=1;
  1757  020D  1508               	bsf	8,2	;volatile
  1758  020E                     i1l897:
  1759                           
  1760                           ;proyectofinal_main.c: 92:             _delay((unsigned long)((1.5)*(4000000/4000.0)));
  1761  020E  30D6               	movlw	214
  1762  020F  00F7               	movwf	??_isr
  1763  0210                     u48_27:
  1764  0210  2A11               	nop2
  1765  0211  2A12               	nop2
  1766  0212  0BF7               	decfsz	??_isr,f
  1767  0213  2A10               	goto	u48_27
  1768  0214  0000               	nop
  1769  0215                     i1l899:
  1770                           
  1771                           ;proyectofinal_main.c: 93:             PORTDbits.RD0=0;
  1772  0215  1283               	bcf	3,5	;RP0=0, select bank0
  1773  0216  1303               	bcf	3,6	;RP1=0, select bank0
  1774  0217  1008               	bcf	8,0	;volatile
  1775  0218                     i1l901:
  1776                           
  1777                           ;proyectofinal_main.c: 94:             PORTDbits.RD1=0;
  1778  0218  1088               	bcf	8,1	;volatile
  1779  0219                     i1l903:
  1780                           
  1781                           ;proyectofinal_main.c: 95:             PORTDbits.RD2=0;
  1782  0219  1108               	bcf	8,2	;volatile
  1783                           
  1784                           ;proyectofinal_main.c: 96:             TMR0 = 72;
  1785  021A  3048               	movlw	72
  1786  021B  0081               	movwf	1	;volatile
  1787  021C                     i1l905:
  1788                           
  1789                           ;proyectofinal_main.c: 97:             INTCONbits.T0IF=0;
  1790  021C  110B               	bcf	11,2	;volatile
  1791                           
  1792                           ;proyectofinal_main.c: 98:         }
  1793  021D  2A32               	goto	i1l917
  1794  021E                     i1l114:	
  1795                           ;proyectofinal_main.c: 99:         else
  1796                           
  1797                           
  1798                           ;proyectofinal_main.c: 100:         {;proyectofinal_main.c: 101:             PORTDbits.R
      +                          D0=1;
  1799  021E  1283               	bcf	3,5	;RP0=0, select bank0
  1800  021F  1303               	bcf	3,6	;RP1=0, select bank0
  1801  0220  1408               	bsf	8,0	;volatile
  1802                           
  1803                           ;proyectofinal_main.c: 102:             PORTDbits.RD1=1;
  1804  0221  1488               	bsf	8,1	;volatile
  1805                           
  1806                           ;proyectofinal_main.c: 103:             PORTDbits.RD2=1;
  1807  0222  1508               	bsf	8,2	;volatile
  1808  0223                     i1l907:
  1809                           
  1810                           ;proyectofinal_main.c: 104:             _delay((unsigned long)((1)*(4000000/4000.0)));
  1811  0223  30C7               	movlw	199
  1812  0224  00F7               	movwf	??_isr
  1813  0225                     u49_27:
  1814  0225  2A26               	nop2
  1815  0226  0BF7               	decfsz	??_isr,f
  1816  0227  2A25               	goto	u49_27
  1817  0228  2A29               	nop2
  1818  0229  2A2A               	nop2
  1819  022A                     i1l909:
  1820                           
  1821                           ;proyectofinal_main.c: 105:             PORTDbits.RD0=0;
  1822  022A  1283               	bcf	3,5	;RP0=0, select bank0
  1823  022B  1303               	bcf	3,6	;RP1=0, select bank0
  1824  022C  1008               	bcf	8,0	;volatile
  1825  022D                     i1l911:
  1826                           
  1827                           ;proyectofinal_main.c: 106:             PORTDbits.RD1=0;
  1828  022D  1088               	bcf	8,1	;volatile
  1829  022E                     i1l913:
  1830                           
  1831                           ;proyectofinal_main.c: 107:             PORTDbits.RD2=0;
  1832  022E  1108               	bcf	8,2	;volatile
  1833                           
  1834                           ;proyectofinal_main.c: 108:             TMR0 = 74;
  1835  022F  304A               	movlw	74
  1836  0230  0081               	movwf	1	;volatile
  1837  0231                     i1l915:
  1838                           
  1839                           ;proyectofinal_main.c: 109:             INTCONbits.T0IF=0;
  1840  0231  110B               	bcf	11,2	;volatile
  1841  0232                     i1l917:
  1842                           
  1843                           ;proyectofinal_main.c: 114:     if(PIR1bits.RCIF)
  1844  0232  1E8C               	btfss	12,5	;volatile
  1845  0233  2A35               	goto	u7_21
  1846  0234  2A36               	goto	u7_20
  1847  0235                     u7_21:
  1848  0235  2A38               	goto	i1l117
  1849  0236                     u7_20:
  1850  0236                     i1l919:
  1851                           
  1852                           ;proyectofinal_main.c: 115:     {;proyectofinal_main.c: 116:         RCREG=dato_recibido
      +                          ;
  1853  0236  0876               	movf	_dato_recibido,w
  1854  0237  009A               	movwf	26	;volatile
  1855  0238                     i1l117:
  1856  0238  087B               	movf	??_isr+4,w
  1857  0239  00FF               	movwf	btemp+1
  1858  023A  087A               	movf	??_isr+3,w
  1859  023B  008A               	movwf	10
  1860  023C  0E79               	swapf	??_isr+2,w
  1861  023D  0083               	movwf	3
  1862  023E  0EFE               	swapf	btemp,f
  1863  023F  0E7E               	swapf	btemp,w
  1864  0240  0009               	retfie
  1865  0241                     __end_of_isr:
  1866  007E                     btemp	set	126	;btemp
  1867  007E                     wtemp0	set	126
  1868                           
  1869                           	psect	intentry
  1870  0004                     __pintentry:	
  1871                           ;incstack = 0
  1872                           ; Regs used in _isr: [wreg+btemp+1]
  1873                           
  1874  0004                     interrupt_function:
  1875  007E                     saved_w	set	btemp
  1876  0004  00FE               	movwf	btemp
  1877  0005  0E03               	swapf	3,w
  1878  0006  00F9               	movwf	??_isr+2
  1879  0007  080A               	movf	10,w
  1880  0008  00FA               	movwf	??_isr+3
  1881  0009  1283               	bcf	3,5	;RP0=0, select bank0
  1882  000A  1303               	bcf	3,6	;RP1=0, select bank0
  1883  000B  087F               	movf	btemp+1,w
  1884  000C  00FB               	movwf	??_isr+4
  1885  000D  120A  118A  29BA   	ljmp	_isr
  1886                           
  1887                           	psect	config
  1888                           
  1889                           ;Config register CONFIG1 @ 0x2007
  1890                           ;	Oscillator Selection bits
  1891                           ;	FOSC = INTRC_NOCLKOUT, INTOSCIO oscillator: I/O function on RA6/OSC2/CLKOUT pin, I/O f
      +                          unction on RA7/OSC1/CLKIN
  1892                           ;	Watchdog Timer Enable bit
  1893                           ;	WDTE = OFF, WDT disabled and can be enabled by SWDTEN bit of the WDTCON register
  1894                           ;	Power-up Timer Enable bit
  1895                           ;	PWRTE = OFF, PWRT disabled
  1896                           ;	RE3/MCLR pin function select bit
  1897                           ;	MCLRE = OFF, RE3/MCLR pin function is digital input, MCLR internally tied to VDD
  1898                           ;	Code Protection bit
  1899                           ;	CP = OFF, Program memory code protection is disabled
  1900                           ;	Data Code Protection bit
  1901                           ;	CPD = OFF, Data memory code protection is disabled
  1902                           ;	Brown Out Reset Selection bits
  1903                           ;	BOREN = OFF, BOR disabled
  1904                           ;	Internal External Switchover bit
  1905                           ;	IESO = OFF, Internal/External Switchover mode is disabled
  1906                           ;	Fail-Safe Clock Monitor Enabled bit
  1907                           ;	FCMEN = OFF, Fail-Safe Clock Monitor is disabled
  1908                           ;	Low Voltage Programming Enable bit
  1909                           ;	LVP = OFF, RB3 pin has digital I/O, HV on MCLR must be used for programming
  1910                           ;	In-Circuit Debugger Mode bit
  1911                           ;	DEBUG = 0x1, unprogrammed default
  1912  2007                     	org	8199
  1913  2007  20D4               	dw	8404
  1914                           
  1915                           ;Config register CONFIG2 @ 0x2008
  1916                           ;	Brown-out Reset Selection bit
  1917                           ;	BOR4V = BOR40V, Brown-out Reset set to 4.0V
  1918                           ;	Flash Program Memory Self Write Enable bits
  1919                           ;	WRT = OFF, Write protection off
  1920  2008                     	org	8200
  1921  2008  3FFF               	dw	16383

Data Sizes:
    Strings     0
    Constant    0
    Data        8
    BSS         9
    Persistent  0
    Stack       0

Auto Spaces:
    Space          Size  Autos    Used
    COMMON           14      5      12
    BANK0            80      5      15
    BANK1            80      0       0
    BANK3            96      0       0
    BANK2            96      0       0

Pointer List with Targets:

    None.

Critical Paths under _main in COMMON

    None.

Critical Paths under _isr in COMMON

    None.

Critical Paths under _main in BANK0

    _main->_readFromEEPROM
    _main->_writeToEEPROM

Critical Paths under _isr in BANK0

    None.

Critical Paths under _main in BANK1

    None.

Critical Paths under _isr in BANK1

    None.

Critical Paths under _main in BANK3

    None.

Critical Paths under _isr in BANK3

    None.

Critical Paths under _main in BANK2

    None.

Critical Paths under _isr in BANK2

    None.

Call Graph Tables:

 ---------------------------------------------------------------------------------
 (Depth) Function   	        Calls       Base Space   Used Autos Params    Refs
 ---------------------------------------------------------------------------------
 (0) _main                                                 3     3      0     463
                                              2 BANK0      3     3      0
                     _readFromEEPROM
                              _setup
                      _writeToEEPROM
 ---------------------------------------------------------------------------------
 (1) _writeToEEPROM                                        2     1      1     422
                                              0 BANK0      2     1      1
 ---------------------------------------------------------------------------------
 (1) _setup                                                1     1      0       0
                                              0 BANK0      1     1      0
 ---------------------------------------------------------------------------------
 (1) _readFromEEPROM                                       2     2      0      41
                                              0 BANK0      2     2      0
 ---------------------------------------------------------------------------------
 Estimated maximum stack depth 1
 ---------------------------------------------------------------------------------
 (Depth) Function   	        Calls       Base Space   Used Autos Params    Refs
 ---------------------------------------------------------------------------------
 (2) _isr                                                  5     5      0       0
                                              0 COMMON     5     5      0
 ---------------------------------------------------------------------------------
 Estimated maximum stack depth 2
 ---------------------------------------------------------------------------------

 Call Graph Graphs:

 _main (ROOT)
   _readFromEEPROM
   _setup
   _writeToEEPROM

 _isr (ROOT)

 Address spaces:
Name               Size   Autos  Total    Cost      Usage
BANK3               60      0       0       9        0.0%
BITBANK3            60      0       0       8        0.0%
SFR3                 0      0       0       4        0.0%
BITSFR3              0      0       0       4        0.0%
BANK2               60      0       0      11        0.0%
BITBANK2            60      0       0      10        0.0%
SFR2                 0      0       0       5        0.0%
BITSFR2              0      0       0       5        0.0%
BANK1               50      0       0       7        0.0%
BITBANK1            50      0       0       6        0.0%
SFR1                 0      0       0       2        0.0%
BITSFR1              0      0       0       2        0.0%
BANK0               50      5       F       5       18.8%
BITBANK0            50      0       0       4        0.0%
SFR0                 0      0       0       1        0.0%
BITSFR0              0      0       0       1        0.0%
COMMON               E      5       C       1       85.7%
BITCOMMON            E      0       0       0        0.0%
CODE                 0      0       0       0        0.0%
DATA                 0      0      1B      12        0.0%
ABS                  0      0      1B       3        0.0%
NULL                 0      0       0       0        0.0%
STACK                0      0       0       2        0.0%
EEDATA             100      0       0       0        0.0%


Microchip Technology PIC Macro Assembler V2.31 build 20201012212115 
Symbol Table                                                                                   Thu Jun 03 02:22:37 2021

                      pc 0002                       fsr 0004                      l161 02D3  
                    l163 02D9                      l164 02DE                      l158 02BB  
                    l167 0300                      _RB0 0030                      _RB1 0031  
                    u300 00A0                      u301 009F                      u310 00A6  
                    u311 00A5                      u320 00F9                      u321 00F8  
                    u330 0101                      u331 0100                      u340 0109  
                    u341 0108                      u325 00F5                      u270 02D9  
                    u350 010F                      u271 02D8                      u351 010E  
                    u407 006C                      u360 015C                      u280 0043  
                    u361 015B                      u417 008E                      u281 0042  
                    u290 0098                      u427 0122                      u291 0097  
                    u437 0176                      u365 0158                      u447 0189  
                    u457 019A                      u377 0037                      u467 0275  
                    u387 004F                      u397 005C                      _isr 01BA  
                    indf 0000                     l1501 026F                     l1511 0288  
                   l1503 0278                     l1521 0297                     l1513 028A  
                   l1505 027B                     l1601 006F                     l1531 029F  
                   l1523 0299                     l1515 028D                     l1507 027E  
                   l1611 0094                     l1541 02A9                     l1533 02A0  
                   l1525 029A                     l1517 0295                     l1509 0282  
                   l1621 00A7                     l1613 0098                     l1605 0074  
                   l1551 02B2                     l1543 02AC                     l1535 02A1  
                   l1527 029B                     l1519 0296                     l1471 024D  
                   l1623 00B1                     l1615 009C                     l1607 008A  
                   l1553 02B3                     l1545 02AD                     l1537 02A4  
                   l1529 029E                     l1481 0254                     l1473 024E  
                   l1801 0141                     l1633 00CE                     l1625 00B8  
                   l1641 00EC                     l1617 00A0                     l1609 0091  
                   l1555 02B4                     l1547 02AE                     l1539 02A8  
                   l1491 025E                     l1483 0255                     l1475 024F  
                   l1467 0241                     l1571 02D2                     l1563 02BF  
                   l1803 01A9                     l1651 0109                     l1643 00F9  
                   l1573 02F5                     l1557 02B5                     l1549 02B1  
                   l1493 0264                     l1485 025B                     l1477 0252  
                   l1469 024B                     l1565 02C9                     l1661 0127  
                   l1629 00C3                     l1645 00FB                     l1581 002E  
                   l1575 02F9                     l1559 02B8                     l1495 0267  
                   l1487 025C                     l1479 0253                     l1567 02CC  
                   l1655 0110                     l1647 0101                     l1639 00D9  
                   l1591 0044                     l1583 0033                     l1577 02FC  
                   l1497 0268                     l1489 025D                     l1569 02CD  
                   l1673 0135                     l1657 0116                     l1681 013C  
                   l1649 0105                     l1593 0052                     l1585 003A  
                   l1499 0269                     l1691 017B                     l1667 012E  
                   l1683 014F                     l1659 011C                     l1595 0056  
                   l1587 003D                     l1693 018E                     l1685 015C  
                   l1597 005F                     l1695 0194                     l1687 015F  
                   l1599 0066                     l1689 0168                     l1699 019F  
                   l1797 007F                     l1799 00DE                     ?_isr 0077  
                   _TMR0 0001                     u2_20 01BE                     u2_21 01BD  
                   u3_20 01CB                     u3_21 01CA                     u3_25 01C7  
                   u4_20 01D8                     u4_21 01D7                     u4_25 01D4  
                   u5_20 01FC                     u5_21 01FB                     u5_25 01F8  
                   u6_20 0209                     u6_21 0208                     u6_25 0205  
                   u7_20 0236                     u7_21 0235                     _main 002E  
         _botonPrevState 002D                     btemp 007E                     start 0010  
                  ??_isr 0077                    ?_main 0077                    _EEADR 010D  
                  _EEDAT 010C                    i1l114 021E                    i1l117 0238  
                  i1l901 0218                    i1l911 022D                    i1l903 0219  
                  i1l913 022E                    i1l905 021C                    i1l915 0231  
                  i1l907 0223                    i1l909 022A                    i1l917 0232  
                  i1l919 0236                    i1l881 01DD                    i1l873 01BA  
                  i1l883 01E6                    i1l891 01EF                    i1l875 01BE  
                  i1l893 01FC                    i1l885 01E9                    i1l877 01CB  
                  i1l895 0209                    i1l887 01EA                    i1l879 01D8  
                  i1l897 020E                    i1l889 01ED                    i1l899 0215  
                  _RCREG 001A                    _SPBRG 0099                    _PORTA 0005  
                  _PORTB 0006                    _PORTD 0008                    _PORTE 0009  
                  u47_27 01E1                    u48_27 0210                    _TRISB 0086  
                  _TRISD 0088                    u49_27 0225                    _TRISE 0089  
                  _TXREG 0019                    _setup 0241                    pclath 000A  
                  status 0003                    wtemp0 007E          __initialization 0013  
           __end_of_main 01BA    readFromEEPROM@address 0029                   ??_main 002A  
                 _ADRESH 001E                   _CCPR1L 0015                   _CCPR2L 001B  
                 _EECON2 018D                   ?_setup 0077                   _SPBRGH 009A  
      writeToEEPROM@data 0029                   _cuenta 0074                   saved_w 007E  
 __size_of_writeToEEPROM 0023  __end_of__initialization 002A           __pcstackCOMMON 0077  
           __pidataBANK0 0301            __end_of_setup 02BC  __size_of_readFromEEPROM 000F  
         _OPTION_REGbits 0081                  ??_setup 0028               __pbssBANK0 002D  
             __pmaintext 002E            _writeToEEPROM 02BC               __pintentry 0004  
         _estado1_servos 0027           ?_writeToEEPROM 0028           _estado2_servos 0026  
         _estado3_servos 0025                _ANSELbits 0188                  __ptext1 02BC  
                __ptext2 0241                  __ptext3 02F2                  __ptext4 01BA  
              _T2CONbits 0012             __size_of_isr 0087     end_of_initialization 002A  
              _RCSTAbits 0018             _antirrebote1 0072             _antirrebote2 0070  
         _readFromEEPROM 02F2                _PORTDbits 0008                _TRISAbits 0085  
              _TRISCbits 0087              _CCP1CONbits 0017              _CCP2CONbits 001D  
              _TXSTAbits 0098          ??_writeToEEPROM 0029   __end_of_readFromEEPROM 0301  
   writeToEEPROM@address 0028              _BAUDCTLbits 0187      start_initialization 0013  
            __end_of_isr 0241               init_fetch0 02DF          ?_readFromEEPROM 0077  
            __pdataBANK0 0020              __pbssCOMMON 0070                ___latbits 0002  
          __pcstackBANK0 0028            _dato_recibido 0076           __size_of_setup 007B  
      interrupt_function 0004                 _PIE1bits 008C                 _PIR1bits 000C  
               _PIR2bits 000D               _ADCON0bits 001F               _ADCON1bits 009F  
             _EECON1bits 018C           _potenciometro1 0020            __size_of_main 018C  
       ??_readFromEEPROM 0028                 _potValue 002E    __end_of_writeToEEPROM 02DF  
             _INTCONbits 000B                 init_ram0 02E3                 intlevel1 0000  
             _OSCCONbits 008F  
